<?xml version="1.0"?>
<?xml-stylesheet type="text/xsl" href="pdml2html.xsl"?>
<!-- You can find pdml2html.xsl in /Applications/Wireshark.app/Contents/Resources/share/wireshark or at https://code.wireshark.org/review/gitweb?p=wireshark.git;a=blob_plain;f=pdml2html.xsl. -->
<pdml version="0" creator="wireshark/2.2.6" time="Tue May 16 02:53:29 2017" capture_file="/Users/juanjmartinez/Desktop/legac_pfs/backend/code/juan/ProtocolFormatterSystem GUI/30.pcap">
<packet>
  <proto name="geninfo" pos="0" showname="General information" size="60">
    <field name="num" pos="0" show="1" showname="Number" value="1" size="60"/>
    <field name="len" pos="0" show="60" showname="Frame Length" value="3c" size="60"/>
    <field name="caplen" pos="0" show="60" showname="Captured Length" value="3c" size="60"/>
    <field name="timestamp" pos="0" show="Jul  6, 2015 23:29:10.574235000 MDT" showname="Captured Time" value="1436246950.574235000" size="60"/>
  </proto>
  <proto name="frame" showname="Frame 1: 60 bytes on wire (480 bits), 60 bytes captured (480 bits)" size="60" pos="0">
    <field name="frame.encap_type" showname="Encapsulation type: Raw IP (7)" size="0" pos="0" show="7"/>
    <field name="frame.time" showname="Arrival Time: Jul  6, 2015 23:29:10.574235000 MDT" size="0" pos="0" show="Jul  6, 2015 23:29:10.574235000 MDT"/>
    <field name="frame.offset_shift" showname="Time shift for this packet: 0.000000000 seconds" size="0" pos="0" show="0.000000000"/>
    <field name="frame.time_epoch" showname="Epoch Time: 1436246950.574235000 seconds" size="0" pos="0" show="1436246950.574235000"/>
    <field name="frame.time_delta" showname="Time delta from previous captured frame: 0.000000000 seconds" size="0" pos="0" show="0.000000000"/>
    <field name="frame.time_delta_displayed" showname="Time delta from previous displayed frame: 0.000000000 seconds" size="0" pos="0" show="0.000000000"/>
    <field name="frame.time_relative" showname="Time since reference or first frame: 0.000000000 seconds" size="0" pos="0" show="0.000000000"/>
    <field name="frame.number" showname="Frame Number: 1" size="0" pos="0" show="1"/>
    <field name="frame.len" showname="Frame Length: 60 bytes (480 bits)" size="0" pos="0" show="60"/>
    <field name="frame.cap_len" showname="Capture Length: 60 bytes (480 bits)" size="0" pos="0" show="60"/>
    <field name="frame.marked" showname="Frame is marked: False" size="0" pos="0" show="0"/>
    <field name="frame.ignored" showname="Frame is ignored: False" size="0" pos="0" show="0"/>
    <field name="frame.protocols" showname="Protocols in frame: raw:ip:tcp" size="0" pos="0" show="raw:ip:tcp"/>
  </proto>
  <proto name="raw" showname="Raw packet data" size="60" pos="0"/>
  <proto name="ip" showname="Internet Protocol Version 4, Src: 0.0.0.0, Dst: 211.144.94.46" size="20" pos="0">
    <field name="ip.version" showname="0100 .... = Version: 4" size="1" pos="0" show="4" value="4" unmaskedvalue="45"/>
    <field name="ip.hdr_len" showname=".... 0101 = Header Length: 20 bytes (5)" size="1" pos="0" show="20" value="45"/>
    <field name="ip.dsfield" showname="Differentiated Services Field: 0x00 (DSCP: CS0, ECN: Not-ECT)" size="1" pos="1" show="0x00000000" value="00">
      <field name="ip.dsfield.dscp" showname="0000 00.. = Differentiated Services Codepoint: Default (0)" size="1" pos="1" show="0" value="0" unmaskedvalue="00"/>
      <field name="ip.dsfield.ecn" showname=".... ..00 = Explicit Congestion Notification: Not ECN-Capable Transport (0)" size="1" pos="1" show="0" value="0" unmaskedvalue="00"/>
    </field>
    <field name="ip.len" showname="Total Length: 60" size="2" pos="2" show="60" value="003c"/>
    <field name="ip.id" showname="Identification: 0x417e (16766)" size="2" pos="4" show="0x0000417e" value="417e"/>
    <field name="ip.flags" showname="Flags: 0x02 (Don&#x27;t Fragment)" size="1" pos="6" show="0x00000002" value="40">
      <field name="ip.flags.rb" showname="0... .... = Reserved bit: Not set" size="1" pos="6" show="0" value="40"/>
      <field name="ip.flags.df" showname=".1.. .... = Don&#x27;t fragment: Set" size="1" pos="6" show="1" value="40"/>
      <field name="ip.flags.mf" showname="..0. .... = More fragments: Not set" size="1" pos="6" show="0" value="40"/>
    </field>
    <field name="ip.frag_offset" showname="Fragment offset: 0" size="2" pos="6" show="0" value="4000"/>
    <field name="ip.ttl" showname="Time to live: 60" size="1" pos="8" show="60" value="3c"/>
    <field name="ip.proto" showname="Protocol: TCP (6)" size="1" pos="9" show="6" value="06"/>
    <field name="ip.checksum" showname="Header checksum: 0x0000 [validation disabled]" size="2" pos="10" show="0x00000000" value="0000"/>
    <field name="ip.checksum.status" showname="Header checksum status: Unverified" size="0" pos="10" show="2"/>
    <field name="ip.src" showname="Source: 0.0.0.0" size="4" pos="12" show="0.0.0.0" value="00000000"/>
    <field name="ip.addr" showname="Source or Destination Address: 0.0.0.0" hide="yes" size="4" pos="12" show="0.0.0.0" value="00000000"/>
    <field name="ip.src_host" showname="Source Host: 0.0.0.0" hide="yes" size="4" pos="12" show="0.0.0.0" value="00000000"/>
    <field name="ip.host" showname="Source or Destination Host: 0.0.0.0" hide="yes" size="4" pos="12" show="0.0.0.0" value="00000000"/>
    <field name="ip.dst" showname="Destination: 211.144.94.46" size="4" pos="16" show="211.144.94.46" value="d3905e2e"/>
    <field name="ip.addr" showname="Source or Destination Address: 211.144.94.46" hide="yes" size="4" pos="16" show="211.144.94.46" value="d3905e2e"/>
    <field name="ip.dst_host" showname="Destination Host: 211.144.94.46" hide="yes" size="4" pos="16" show="211.144.94.46" value="d3905e2e"/>
    <field name="ip.host" showname="Source or Destination Host: 211.144.94.46" hide="yes" size="4" pos="16" show="211.144.94.46" value="d3905e2e"/>
    <field name="" show="Source GeoIP: Unknown" size="4" pos="12" value="00000000"/>
    <field name="" show="Destination GeoIP: Unknown" size="4" pos="16" value="d3905e2e"/>
  </proto>
  <proto name="tcp" showname="Transmission Control Protocol, Src Port: 61023, Dst Port: 80, Seq: 0, Len: 0" size="40" pos="20">
    <field name="tcp.srcport" showname="Source Port: 61023" size="2" pos="20" show="61023" value="ee5f"/>
    <field name="tcp.dstport" showname="Destination Port: 80" size="2" pos="22" show="80" value="0050"/>
    <field name="tcp.port" showname="Source or Destination Port: 61023" hide="yes" size="2" pos="20" show="61023" value="ee5f"/>
    <field name="tcp.port" showname="Source or Destination Port: 80" hide="yes" size="2" pos="22" show="80" value="0050"/>
    <field name="tcp.stream" showname="Stream index: 0" size="0" pos="20" show="0"/>
    <field name="tcp.len" showname="TCP Segment Len: 0" size="1" pos="32" show="0" value="a0"/>
    <field name="tcp.seq" showname="Sequence number: 0    (relative sequence number)" size="4" pos="24" show="0" value="efa6815e"/>
    <field name="tcp.ack" showname="Acknowledgment number: 0" size="4" pos="28" show="0" value="00000000"/>
    <field name="tcp.hdr_len" showname="Header Length: 40 bytes" size="1" pos="32" show="40" value="a0"/>
    <field name="tcp.flags" showname="Flags: 0x002 (SYN)" size="2" pos="32" show="0x00000002" value="2" unmaskedvalue="a002">
      <field name="tcp.flags.res" showname="000. .... .... = Reserved: Not set" size="1" pos="32" show="0" value="0" unmaskedvalue="a0"/>
      <field name="tcp.flags.ns" showname="...0 .... .... = Nonce: Not set" size="1" pos="32" show="0" value="0" unmaskedvalue="a0"/>
      <field name="tcp.flags.cwr" showname=".... 0... .... = Congestion Window Reduced (CWR): Not set" size="1" pos="33" show="0" value="0" unmaskedvalue="02"/>
      <field name="tcp.flags.ecn" showname=".... .0.. .... = ECN-Echo: Not set" size="1" pos="33" show="0" value="0" unmaskedvalue="02"/>
      <field name="tcp.flags.urg" showname=".... ..0. .... = Urgent: Not set" size="1" pos="33" show="0" value="0" unmaskedvalue="02"/>
      <field name="tcp.flags.ack" showname=".... ...0 .... = Acknowledgment: Not set" size="1" pos="33" show="0" value="0" unmaskedvalue="02"/>
      <field name="tcp.flags.push" showname=".... .... 0... = Push: Not set" size="1" pos="33" show="0" value="0" unmaskedvalue="02"/>
      <field name="tcp.flags.reset" showname=".... .... .0.. = Reset: Not set" size="1" pos="33" show="0" value="0" unmaskedvalue="02"/>
      <field name="tcp.flags.syn" showname=".... .... ..1. = Syn: Set" size="1" pos="33" show="1" value="1" unmaskedvalue="02">
        <field name="_ws.expert" showname="Expert Info (Chat/Sequence): Connection establish request (SYN): server port 80" size="0" pos="33">
          <field name="tcp.connection.syn" showname="Connection establish request (SYN): server port 80" size="0" pos="0" show="" value=""/>
          <field name="_ws.expert.message" showname="Message: Connection establish request (SYN): server port 80" hide="yes" size="0" pos="0" show="Connection establish request (SYN): server port 80"/>
          <field name="_ws.expert.severity" showname="Severity level: Chat" size="0" pos="0" show="2097152"/>
          <field name="_ws.expert.group" showname="Group: Sequence" size="0" pos="0" show="33554432"/>
        </field>
      </field>
      <field name="tcp.flags.fin" showname=".... .... ...0 = Fin: Not set" size="1" pos="33" show="0" value="0" unmaskedvalue="02"/>
      <field name="tcp.flags.str" showname="TCP Flags: \xc2\xb7\xc2\xb7\xc2\xb7\xc2\xb7\xc2\xb7\xc2\xb7\xc2\xb7\xc2\xb7\xc2\xb7\xc2\xb7S\xc2\xb7" size="2" pos="32" show="\xc2\xb7\xc2\xb7\xc2\xb7\xc2\xb7\xc2\xb7\xc2\xb7\xc2\xb7\xc2\xb7\xc2\xb7\xc2\xb7S\xc2\xb7" value="a002"/>
    </field>
    <field name="tcp.window_size_value" showname="Window size value: 5840" size="2" pos="34" show="5840" value="16d0"/>
    <field name="tcp.window_size" showname="Calculated window size: 5840" size="2" pos="34" show="5840" value="16d0"/>
    <field name="tcp.checksum" showname="Checksum: 0x0000 [unverified]" size="2" pos="36" show="0x00000000" value="0000"/>
    <field name="tcp.checksum.status" showname="Checksum Status: Unverified" size="0" pos="36" show="2"/>
    <field name="tcp.urgent_pointer" showname="Urgent pointer: 0" size="2" pos="38" show="0" value="0000"/>
    <field name="tcp.options" showname="Options: (20 bytes), Maximum segment size, SACK permitted, Timestamps, No-Operation (NOP), Window scale" size="20" pos="40" show="02:04:05:b4:04:02:08:0a:20:c0:84:04:00:00:00:00:01:03:03:03" value="020405b40402080a20c084040000000001030303">
      <field name="tcp.options.mss" showname="Maximum segment size: 1460 bytes" size="4" pos="40" show="" value="">
        <field name="tcp.option_kind" showname="Kind: Maximum Segment Size (2)" size="1" pos="40" show="2" value="02"/>
        <field name="tcp.option_len" showname="Length: 4" size="1" pos="41" show="4" value="04"/>
        <field name="tcp.options.mss_val" showname="MSS Value: 1460" size="2" pos="42" show="1460" value="05b4"/>
      </field>
      <field name="tcp.options.sack_perm" showname="TCP SACK Permitted Option: True" size="2" pos="44" show="1" value="0402">
        <field name="tcp.option_kind" showname="Kind: SACK Permitted (4)" size="1" pos="44" show="4" value="04"/>
        <field name="tcp.option_len" showname="Length: 2" size="1" pos="45" show="2" value="02"/>
      </field>
      <field name="" show="Timestamps: TSval 549487620, TSecr 0" size="10" pos="46" value="080a20c0840400000000">
        <field name="tcp.option_kind" showname="Kind: Time Stamp Option (8)" size="1" pos="46" show="8" value="08"/>
        <field name="tcp.option_len" showname="Length: 10" size="1" pos="47" show="10" value="0a"/>
        <field name="tcp.options.timestamp.tsval" showname="Timestamp value: 549487620" size="4" pos="48" show="549487620" value="20c08404"/>
        <field name="tcp.options.timestamp.tsecr" showname="Timestamp echo reply: 0" size="4" pos="52" show="0" value="00000000"/>
      </field>
      <field name="" show="No-Operation (NOP)" size="1" pos="56" value="01">
        <field name="tcp.options.type" showname="Type: 1" size="1" pos="56" show="1" value="01">
          <field name="tcp.options.type.copy" showname="0... .... = Copy on fragmentation: No" size="1" pos="56" show="0" value="0" unmaskedvalue="01"/>
          <field name="tcp.options.type.class" showname=".00. .... = Class: Control (0)" size="1" pos="56" show="0" value="0" unmaskedvalue="01"/>
          <field name="tcp.options.type.number" showname="...0 0001 = Number: No-Operation (NOP) (1)" size="1" pos="56" show="1" value="1" unmaskedvalue="01"/>
        </field>
      </field>
      <field name="" show="Window scale: 3 (multiply by 8)" size="3" pos="57" value="030303">
        <field name="tcp.option_kind" showname="Kind: Window Scale (3)" size="1" pos="57" show="3" value="03"/>
        <field name="tcp.option_len" showname="Length: 3" size="1" pos="58" show="3" value="03"/>
        <field name="tcp.options.wscale.shift" showname="Shift count: 3" size="1" pos="59" show="3" value="03"/>
        <field name="tcp.options.wscale.multiplier" showname="Multiplier: 8" size="1" pos="59" show="8" value="03"/>
      </field>
    </field>
  </proto>
</packet>


<packet>
  <proto name="geninfo" pos="0" showname="General information" size="60">
    <field name="num" pos="0" show="2" showname="Number" value="2" size="60"/>
    <field name="len" pos="0" show="60" showname="Frame Length" value="3c" size="60"/>
    <field name="caplen" pos="0" show="60" showname="Captured Length" value="3c" size="60"/>
    <field name="timestamp" pos="0" show="Jul  6, 2015 23:29:11.059178000 MDT" showname="Captured Time" value="1436246951.059178000" size="60"/>
  </proto>
  <proto name="frame" showname="Frame 2: 60 bytes on wire (480 bits), 60 bytes captured (480 bits)" size="60" pos="0">
    <field name="frame.encap_type" showname="Encapsulation type: Raw IP (7)" size="0" pos="0" show="7"/>
    <field name="frame.time" showname="Arrival Time: Jul  6, 2015 23:29:11.059178000 MDT" size="0" pos="0" show="Jul  6, 2015 23:29:11.059178000 MDT"/>
    <field name="frame.offset_shift" showname="Time shift for this packet: 0.000000000 seconds" size="0" pos="0" show="0.000000000"/>
    <field name="frame.time_epoch" showname="Epoch Time: 1436246951.059178000 seconds" size="0" pos="0" show="1436246951.059178000"/>
    <field name="frame.time_delta" showname="Time delta from previous captured frame: 0.484943000 seconds" size="0" pos="0" show="0.484943000"/>
    <field name="frame.time_delta_displayed" showname="Time delta from previous displayed frame: 0.484943000 seconds" size="0" pos="0" show="0.484943000"/>
    <field name="frame.time_relative" showname="Time since reference or first frame: 0.484943000 seconds" size="0" pos="0" show="0.484943000"/>
    <field name="frame.number" showname="Frame Number: 2" size="0" pos="0" show="2"/>
    <field name="frame.len" showname="Frame Length: 60 bytes (480 bits)" size="0" pos="0" show="60"/>
    <field name="frame.cap_len" showname="Capture Length: 60 bytes (480 bits)" size="0" pos="0" show="60"/>
    <field name="frame.marked" showname="Frame is marked: False" size="0" pos="0" show="0"/>
    <field name="frame.ignored" showname="Frame is ignored: False" size="0" pos="0" show="0"/>
    <field name="frame.protocols" showname="Protocols in frame: raw:ip:tcp" size="0" pos="0" show="raw:ip:tcp"/>
  </proto>
  <proto name="raw" showname="Raw packet data" size="60" pos="0"/>
  <proto name="ip" showname="Internet Protocol Version 4, Src: 211.144.94.46, Dst: 0.0.0.0" size="20" pos="0">
    <field name="ip.version" showname="0100 .... = Version: 4" size="1" pos="0" show="4" value="4" unmaskedvalue="45"/>
    <field name="ip.hdr_len" showname=".... 0101 = Header Length: 20 bytes (5)" size="1" pos="0" show="20" value="45"/>
    <field name="ip.dsfield" showname="Differentiated Services Field: 0x80 (DSCP: CS4, ECN: Not-ECT)" size="1" pos="1" show="0x00000080" value="80">
      <field name="ip.dsfield.dscp" showname="1000 00.. = Differentiated Services Codepoint: Class Selector 4 (32)" size="1" pos="1" show="32" value="20" unmaskedvalue="80"/>
      <field name="ip.dsfield.ecn" showname=".... ..00 = Explicit Congestion Notification: Not ECN-Capable Transport (0)" size="1" pos="1" show="0" value="0" unmaskedvalue="80"/>
    </field>
    <field name="ip.len" showname="Total Length: 60" size="2" pos="2" show="60" value="003c"/>
    <field name="ip.id" showname="Identification: 0x0000 (0)" size="2" pos="4" show="0x00000000" value="0000"/>
    <field name="ip.flags" showname="Flags: 0x02 (Don&#x27;t Fragment)" size="1" pos="6" show="0x00000002" value="40">
      <field name="ip.flags.rb" showname="0... .... = Reserved bit: Not set" size="1" pos="6" show="0" value="40"/>
      <field name="ip.flags.df" showname=".1.. .... = Don&#x27;t fragment: Set" size="1" pos="6" show="1" value="40"/>
      <field name="ip.flags.mf" showname="..0. .... = More fragments: Not set" size="1" pos="6" show="0" value="40"/>
    </field>
    <field name="ip.frag_offset" showname="Fragment offset: 0" size="2" pos="6" show="0" value="4000"/>
    <field name="ip.ttl" showname="Time to live: 38" size="1" pos="8" show="38" value="26"/>
    <field name="ip.proto" showname="Protocol: TCP (6)" size="1" pos="9" show="6" value="06"/>
    <field name="ip.checksum" showname="Header checksum: 0x0000 [validation disabled]" size="2" pos="10" show="0x00000000" value="0000"/>
    <field name="ip.checksum.status" showname="Header checksum status: Unverified" size="0" pos="10" show="2"/>
    <field name="ip.src" showname="Source: 211.144.94.46" size="4" pos="12" show="211.144.94.46" value="d3905e2e"/>
    <field name="ip.addr" showname="Source or Destination Address: 211.144.94.46" hide="yes" size="4" pos="12" show="211.144.94.46" value="d3905e2e"/>
    <field name="ip.src_host" showname="Source Host: 211.144.94.46" hide="yes" size="4" pos="12" show="211.144.94.46" value="d3905e2e"/>
    <field name="ip.host" showname="Source or Destination Host: 211.144.94.46" hide="yes" size="4" pos="12" show="211.144.94.46" value="d3905e2e"/>
    <field name="ip.dst" showname="Destination: 0.0.0.0" size="4" pos="16" show="0.0.0.0" value="00000000"/>
    <field name="ip.addr" showname="Source or Destination Address: 0.0.0.0" hide="yes" size="4" pos="16" show="0.0.0.0" value="00000000"/>
    <field name="ip.dst_host" showname="Destination Host: 0.0.0.0" hide="yes" size="4" pos="16" show="0.0.0.0" value="00000000"/>
    <field name="ip.host" showname="Source or Destination Host: 0.0.0.0" hide="yes" size="4" pos="16" show="0.0.0.0" value="00000000"/>
    <field name="" show="Source GeoIP: Unknown" size="4" pos="12" value="d3905e2e"/>
    <field name="" show="Destination GeoIP: Unknown" size="4" pos="16" value="00000000"/>
  </proto>
  <proto name="tcp" showname="Transmission Control Protocol, Src Port: 80, Dst Port: 61023, Seq: 0, Ack: 1, Len: 0" size="40" pos="20">
    <field name="tcp.srcport" showname="Source Port: 80" size="2" pos="20" show="80" value="0050"/>
    <field name="tcp.dstport" showname="Destination Port: 61023" size="2" pos="22" show="61023" value="ee5f"/>
    <field name="tcp.port" showname="Source or Destination Port: 80" hide="yes" size="2" pos="20" show="80" value="0050"/>
    <field name="tcp.port" showname="Source or Destination Port: 61023" hide="yes" size="2" pos="22" show="61023" value="ee5f"/>
    <field name="tcp.stream" showname="Stream index: 0" size="0" pos="20" show="0"/>
    <field name="tcp.len" showname="TCP Segment Len: 0" size="1" pos="32" show="0" value="a0"/>
    <field name="tcp.seq" showname="Sequence number: 0    (relative sequence number)" size="4" pos="24" show="0" value="c7ebfe82"/>
    <field name="tcp.ack" showname="Acknowledgment number: 1    (relative ack number)" size="4" pos="28" show="1" value="efa6815f"/>
    <field name="tcp.hdr_len" showname="Header Length: 40 bytes" size="1" pos="32" show="40" value="a0"/>
    <field name="tcp.flags" showname="Flags: 0x012 (SYN, ACK)" size="2" pos="32" show="0x00000012" value="12" unmaskedvalue="a012">
      <field name="tcp.flags.res" showname="000. .... .... = Reserved: Not set" size="1" pos="32" show="0" value="0" unmaskedvalue="a0"/>
      <field name="tcp.flags.ns" showname="...0 .... .... = Nonce: Not set" size="1" pos="32" show="0" value="0" unmaskedvalue="a0"/>
      <field name="tcp.flags.cwr" showname=".... 0... .... = Congestion Window Reduced (CWR): Not set" size="1" pos="33" show="0" value="0" unmaskedvalue="12"/>
      <field name="tcp.flags.ecn" showname=".... .0.. .... = ECN-Echo: Not set" size="1" pos="33" show="0" value="0" unmaskedvalue="12"/>
      <field name="tcp.flags.urg" showname=".... ..0. .... = Urgent: Not set" size="1" pos="33" show="0" value="0" unmaskedvalue="12"/>
      <field name="tcp.flags.ack" showname=".... ...1 .... = Acknowledgment: Set" size="1" pos="33" show="1" value="1" unmaskedvalue="12"/>
      <field name="tcp.flags.push" showname=".... .... 0... = Push: Not set" size="1" pos="33" show="0" value="0" unmaskedvalue="12"/>
      <field name="tcp.flags.reset" showname=".... .... .0.. = Reset: Not set" size="1" pos="33" show="0" value="0" unmaskedvalue="12"/>
      <field name="tcp.flags.syn" showname=".... .... ..1. = Syn: Set" size="1" pos="33" show="1" value="1" unmaskedvalue="12">
        <field name="_ws.expert" showname="Expert Info (Chat/Sequence): Connection establish acknowledge (SYN+ACK): server port 80" size="0" pos="33">
          <field name="tcp.connection.sack" showname="Connection establish acknowledge (SYN+ACK): server port 80" size="0" pos="0" show="" value=""/>
          <field name="_ws.expert.message" showname="Message: Connection establish acknowledge (SYN+ACK): server port 80" hide="yes" size="0" pos="0" show="Connection establish acknowledge (SYN+ACK): server port 80"/>
          <field name="_ws.expert.severity" showname="Severity level: Chat" size="0" pos="0" show="2097152"/>
          <field name="_ws.expert.group" showname="Group: Sequence" size="0" pos="0" show="33554432"/>
        </field>
      </field>
      <field name="tcp.flags.fin" showname=".... .... ...0 = Fin: Not set" size="1" pos="33" show="0" value="0" unmaskedvalue="12"/>
      <field name="tcp.flags.str" showname="TCP Flags: \xc2\xb7\xc2\xb7\xc2\xb7\xc2\xb7\xc2\xb7\xc2\xb7\xc2\xb7A\xc2\xb7\xc2\xb7S\xc2\xb7" size="2" pos="32" show="\xc2\xb7\xc2\xb7\xc2\xb7\xc2\xb7\xc2\xb7\xc2\xb7\xc2\xb7A\xc2\xb7\xc2\xb7S\xc2\xb7" value="a012"/>
    </field>
    <field name="tcp.window_size_value" showname="Window size value: 14480" size="2" pos="34" show="14480" value="3890"/>
    <field name="tcp.window_size" showname="Calculated window size: 14480" size="2" pos="34" show="14480" value="3890"/>
    <field name="tcp.checksum" showname="Checksum: 0x0000 [unverified]" size="2" pos="36" show="0x00000000" value="0000"/>
    <field name="tcp.checksum.status" showname="Checksum Status: Unverified" size="0" pos="36" show="2"/>
    <field name="tcp.urgent_pointer" showname="Urgent pointer: 0" size="2" pos="38" show="0" value="0000"/>
    <field name="tcp.options" showname="Options: (20 bytes), Maximum segment size, SACK permitted, Timestamps, No-Operation (NOP), Window scale" size="20" pos="40" show="02:04:05:b4:04:02:08:0a:eb:6e:ad:93:20:c0:84:04:01:03:03:09" value="020405b40402080aeb6ead9320c0840401030309">
      <field name="tcp.options.mss" showname="Maximum segment size: 1460 bytes" size="4" pos="40" show="" value="">
        <field name="tcp.option_kind" showname="Kind: Maximum Segment Size (2)" size="1" pos="40" show="2" value="02"/>
        <field name="tcp.option_len" showname="Length: 4" size="1" pos="41" show="4" value="04"/>
        <field name="tcp.options.mss_val" showname="MSS Value: 1460" size="2" pos="42" show="1460" value="05b4"/>
      </field>
      <field name="tcp.options.sack_perm" showname="TCP SACK Permitted Option: True" size="2" pos="44" show="1" value="0402">
        <field name="tcp.option_kind" showname="Kind: SACK Permitted (4)" size="1" pos="44" show="4" value="04"/>
        <field name="tcp.option_len" showname="Length: 2" size="1" pos="45" show="2" value="02"/>
      </field>
      <field name="" show="Timestamps: TSval 3949899155, TSecr 549487620" size="10" pos="46" value="080aeb6ead9320c08404">
        <field name="tcp.option_kind" showname="Kind: Time Stamp Option (8)" size="1" pos="46" show="8" value="08"/>
        <field name="tcp.option_len" showname="Length: 10" size="1" pos="47" show="10" value="0a"/>
        <field name="tcp.options.timestamp.tsval" showname="Timestamp value: 3949899155" size="4" pos="48" show="3949899155" value="eb6ead93"/>
        <field name="tcp.options.timestamp.tsecr" showname="Timestamp echo reply: 549487620" size="4" pos="52" show="549487620" value="20c08404"/>
      </field>
      <field name="" show="No-Operation (NOP)" size="1" pos="56" value="01">
        <field name="tcp.options.type" showname="Type: 1" size="1" pos="56" show="1" value="01">
          <field name="tcp.options.type.copy" showname="0... .... = Copy on fragmentation: No" size="1" pos="56" show="0" value="0" unmaskedvalue="01"/>
          <field name="tcp.options.type.class" showname=".00. .... = Class: Control (0)" size="1" pos="56" show="0" value="0" unmaskedvalue="01"/>
          <field name="tcp.options.type.number" showname="...0 0001 = Number: No-Operation (NOP) (1)" size="1" pos="56" show="1" value="1" unmaskedvalue="01"/>
        </field>
      </field>
      <field name="" show="Window scale: 9 (multiply by 512)" size="3" pos="57" value="030309">
        <field name="tcp.option_kind" showname="Kind: Window Scale (3)" size="1" pos="57" show="3" value="03"/>
        <field name="tcp.option_len" showname="Length: 3" size="1" pos="58" show="3" value="03"/>
        <field name="tcp.options.wscale.shift" showname="Shift count: 9" size="1" pos="59" show="9" value="09"/>
        <field name="tcp.options.wscale.multiplier" showname="Multiplier: 512" size="1" pos="59" show="512" value="09"/>
      </field>
    </field>
    <field name="tcp.analysis" showname="SEQ/ACK analysis" size="0" pos="20" show="" value="">
      <field name="tcp.analysis.acks_frame" showname="This is an ACK to the segment in frame: 1" size="0" pos="20" show="1"/>
      <field name="tcp.analysis.ack_rtt" showname="The RTT to ACK the segment was: 0.484943000 seconds" size="0" pos="20" show="0.484943000"/>
    </field>
  </proto>
</packet>


<packet>
  <proto name="geninfo" pos="0" showname="General information" size="52">
    <field name="num" pos="0" show="3" showname="Number" value="3" size="52"/>
    <field name="len" pos="0" show="52" showname="Frame Length" value="34" size="52"/>
    <field name="caplen" pos="0" show="52" showname="Captured Length" value="34" size="52"/>
    <field name="timestamp" pos="0" show="Jul  6, 2015 23:29:11.060625000 MDT" showname="Captured Time" value="1436246951.060625000" size="52"/>
  </proto>
  <proto name="frame" showname="Frame 3: 52 bytes on wire (416 bits), 52 bytes captured (416 bits)" size="52" pos="0">
    <field name="frame.encap_type" showname="Encapsulation type: Raw IP (7)" size="0" pos="0" show="7"/>
    <field name="frame.time" showname="Arrival Time: Jul  6, 2015 23:29:11.060625000 MDT" size="0" pos="0" show="Jul  6, 2015 23:29:11.060625000 MDT"/>
    <field name="frame.offset_shift" showname="Time shift for this packet: 0.000000000 seconds" size="0" pos="0" show="0.000000000"/>
    <field name="frame.time_epoch" showname="Epoch Time: 1436246951.060625000 seconds" size="0" pos="0" show="1436246951.060625000"/>
    <field name="frame.time_delta" showname="Time delta from previous captured frame: 0.001447000 seconds" size="0" pos="0" show="0.001447000"/>
    <field name="frame.time_delta_displayed" showname="Time delta from previous displayed frame: 0.001447000 seconds" size="0" pos="0" show="0.001447000"/>
    <field name="frame.time_relative" showname="Time since reference or first frame: 0.486390000 seconds" size="0" pos="0" show="0.486390000"/>
    <field name="frame.number" showname="Frame Number: 3" size="0" pos="0" show="3"/>
    <field name="frame.len" showname="Frame Length: 52 bytes (416 bits)" size="0" pos="0" show="52"/>
    <field name="frame.cap_len" showname="Capture Length: 52 bytes (416 bits)" size="0" pos="0" show="52"/>
    <field name="frame.marked" showname="Frame is marked: False" size="0" pos="0" show="0"/>
    <field name="frame.ignored" showname="Frame is ignored: False" size="0" pos="0" show="0"/>
    <field name="frame.protocols" showname="Protocols in frame: raw:ip:tcp" size="0" pos="0" show="raw:ip:tcp"/>
  </proto>
  <proto name="raw" showname="Raw packet data" size="52" pos="0"/>
  <proto name="ip" showname="Internet Protocol Version 4, Src: 0.0.0.0, Dst: 211.144.94.46" size="20" pos="0">
    <field name="ip.version" showname="0100 .... = Version: 4" size="1" pos="0" show="4" value="4" unmaskedvalue="45"/>
    <field name="ip.hdr_len" showname=".... 0101 = Header Length: 20 bytes (5)" size="1" pos="0" show="20" value="45"/>
    <field name="ip.dsfield" showname="Differentiated Services Field: 0x00 (DSCP: CS0, ECN: Not-ECT)" size="1" pos="1" show="0x00000000" value="00">
      <field name="ip.dsfield.dscp" showname="0000 00.. = Differentiated Services Codepoint: Default (0)" size="1" pos="1" show="0" value="0" unmaskedvalue="00"/>
      <field name="ip.dsfield.ecn" showname=".... ..00 = Explicit Congestion Notification: Not ECN-Capable Transport (0)" size="1" pos="1" show="0" value="0" unmaskedvalue="00"/>
    </field>
    <field name="ip.len" showname="Total Length: 52" size="2" pos="2" show="52" value="0034"/>
    <field name="ip.id" showname="Identification: 0x417f (16767)" size="2" pos="4" show="0x0000417f" value="417f"/>
    <field name="ip.flags" showname="Flags: 0x02 (Don&#x27;t Fragment)" size="1" pos="6" show="0x00000002" value="40">
      <field name="ip.flags.rb" showname="0... .... = Reserved bit: Not set" size="1" pos="6" show="0" value="40"/>
      <field name="ip.flags.df" showname=".1.. .... = Don&#x27;t fragment: Set" size="1" pos="6" show="1" value="40"/>
      <field name="ip.flags.mf" showname="..0. .... = More fragments: Not set" size="1" pos="6" show="0" value="40"/>
    </field>
    <field name="ip.frag_offset" showname="Fragment offset: 0" size="2" pos="6" show="0" value="4000"/>
    <field name="ip.ttl" showname="Time to live: 60" size="1" pos="8" show="60" value="3c"/>
    <field name="ip.proto" showname="Protocol: TCP (6)" size="1" pos="9" show="6" value="06"/>
    <field name="ip.checksum" showname="Header checksum: 0x0000 [validation disabled]" size="2" pos="10" show="0x00000000" value="0000"/>
    <field name="ip.checksum.status" showname="Header checksum status: Unverified" size="0" pos="10" show="2"/>
    <field name="ip.src" showname="Source: 0.0.0.0" size="4" pos="12" show="0.0.0.0" value="00000000"/>
    <field name="ip.addr" showname="Source or Destination Address: 0.0.0.0" hide="yes" size="4" pos="12" show="0.0.0.0" value="00000000"/>
    <field name="ip.src_host" showname="Source Host: 0.0.0.0" hide="yes" size="4" pos="12" show="0.0.0.0" value="00000000"/>
    <field name="ip.host" showname="Source or Destination Host: 0.0.0.0" hide="yes" size="4" pos="12" show="0.0.0.0" value="00000000"/>
    <field name="ip.dst" showname="Destination: 211.144.94.46" size="4" pos="16" show="211.144.94.46" value="d3905e2e"/>
    <field name="ip.addr" showname="Source or Destination Address: 211.144.94.46" hide="yes" size="4" pos="16" show="211.144.94.46" value="d3905e2e"/>
    <field name="ip.dst_host" showname="Destination Host: 211.144.94.46" hide="yes" size="4" pos="16" show="211.144.94.46" value="d3905e2e"/>
    <field name="ip.host" showname="Source or Destination Host: 211.144.94.46" hide="yes" size="4" pos="16" show="211.144.94.46" value="d3905e2e"/>
    <field name="" show="Source GeoIP: Unknown" size="4" pos="12" value="00000000"/>
    <field name="" show="Destination GeoIP: Unknown" size="4" pos="16" value="d3905e2e"/>
  </proto>
  <proto name="tcp" showname="Transmission Control Protocol, Src Port: 61023, Dst Port: 80, Seq: 1, Ack: 1, Len: 0" size="32" pos="20">
    <field name="tcp.srcport" showname="Source Port: 61023" size="2" pos="20" show="61023" value="ee5f"/>
    <field name="tcp.dstport" showname="Destination Port: 80" size="2" pos="22" show="80" value="0050"/>
    <field name="tcp.port" showname="Source or Destination Port: 61023" hide="yes" size="2" pos="20" show="61023" value="ee5f"/>
    <field name="tcp.port" showname="Source or Destination Port: 80" hide="yes" size="2" pos="22" show="80" value="0050"/>
    <field name="tcp.stream" showname="Stream index: 0" size="0" pos="20" show="0"/>
    <field name="tcp.len" showname="TCP Segment Len: 0" size="1" pos="32" show="0" value="80"/>
    <field name="tcp.seq" showname="Sequence number: 1    (relative sequence number)" size="4" pos="24" show="1" value="efa6815f"/>
    <field name="tcp.ack" showname="Acknowledgment number: 1    (relative ack number)" size="4" pos="28" show="1" value="c7ebfe83"/>
    <field name="tcp.hdr_len" showname="Header Length: 32 bytes" size="1" pos="32" show="32" value="80"/>
    <field name="tcp.flags" showname="Flags: 0x010 (ACK)" size="2" pos="32" show="0x00000010" value="10" unmaskedvalue="8010">
      <field name="tcp.flags.res" showname="000. .... .... = Reserved: Not set" size="1" pos="32" show="0" value="0" unmaskedvalue="80"/>
      <field name="tcp.flags.ns" showname="...0 .... .... = Nonce: Not set" size="1" pos="32" show="0" value="0" unmaskedvalue="80"/>
      <field name="tcp.flags.cwr" showname=".... 0... .... = Congestion Window Reduced (CWR): Not set" size="1" pos="33" show="0" value="0" unmaskedvalue="10"/>
      <field name="tcp.flags.ecn" showname=".... .0.. .... = ECN-Echo: Not set" size="1" pos="33" show="0" value="0" unmaskedvalue="10"/>
      <field name="tcp.flags.urg" showname=".... ..0. .... = Urgent: Not set" size="1" pos="33" show="0" value="0" unmaskedvalue="10"/>
      <field name="tcp.flags.ack" showname=".... ...1 .... = Acknowledgment: Set" size="1" pos="33" show="1" value="1" unmaskedvalue="10"/>
      <field name="tcp.flags.push" showname=".... .... 0... = Push: Not set" size="1" pos="33" show="0" value="0" unmaskedvalue="10"/>
      <field name="tcp.flags.reset" showname=".... .... .0.. = Reset: Not set" size="1" pos="33" show="0" value="0" unmaskedvalue="10"/>
      <field name="tcp.flags.syn" showname=".... .... ..0. = Syn: Not set" size="1" pos="33" show="0" value="0" unmaskedvalue="10"/>
      <field name="tcp.flags.fin" showname=".... .... ...0 = Fin: Not set" size="1" pos="33" show="0" value="0" unmaskedvalue="10"/>
      <field name="tcp.flags.str" showname="TCP Flags: \xc2\xb7\xc2\xb7\xc2\xb7\xc2\xb7\xc2\xb7\xc2\xb7\xc2\xb7A\xc2\xb7\xc2\xb7\xc2\xb7\xc2\xb7" size="2" pos="32" show="\xc2\xb7\xc2\xb7\xc2\xb7\xc2\xb7\xc2\xb7\xc2\xb7\xc2\xb7A\xc2\xb7\xc2\xb7\xc2\xb7\xc2\xb7" value="8010"/>
    </field>
    <field name="tcp.window_size_value" showname="Window size value: 730" size="2" pos="34" show="730" value="02da"/>
    <field name="tcp.window_size" showname="Calculated window size: 5840" size="2" pos="34" show="5840" value="02da"/>
    <field name="tcp.window_size_scalefactor" showname="Window size scaling factor: 8" size="2" pos="34" show="8" value="02da"/>
    <field name="tcp.checksum" showname="Checksum: 0x0000 [unverified]" size="2" pos="36" show="0x00000000" value="0000"/>
    <field name="tcp.checksum.status" showname="Checksum Status: Unverified" size="0" pos="36" show="2"/>
    <field name="tcp.urgent_pointer" showname="Urgent pointer: 0" size="2" pos="38" show="0" value="0000"/>
    <field name="tcp.options" showname="Options: (12 bytes), No-Operation (NOP), No-Operation (NOP), Timestamps" size="12" pos="40" show="01:01:08:0a:20:c0:84:34:eb:6e:ad:93" value="0101080a20c08434eb6ead93">
      <field name="" show="No-Operation (NOP)" size="1" pos="40" value="01">
        <field name="tcp.options.type" showname="Type: 1" size="1" pos="40" show="1" value="01">
          <field name="tcp.options.type.copy" showname="0... .... = Copy on fragmentation: No" size="1" pos="40" show="0" value="0" unmaskedvalue="01"/>
          <field name="tcp.options.type.class" showname=".00. .... = Class: Control (0)" size="1" pos="40" show="0" value="0" unmaskedvalue="01"/>
          <field name="tcp.options.type.number" showname="...0 0001 = Number: No-Operation (NOP) (1)" size="1" pos="40" show="1" value="1" unmaskedvalue="01"/>
        </field>
      </field>
      <field name="" show="No-Operation (NOP)" size="1" pos="41" value="01">
        <field name="tcp.options.type" showname="Type: 1" size="1" pos="41" show="1" value="01">
          <field name="tcp.options.type.copy" showname="0... .... = Copy on fragmentation: No" size="1" pos="41" show="0" value="0" unmaskedvalue="01"/>
          <field name="tcp.options.type.class" showname=".00. .... = Class: Control (0)" size="1" pos="41" show="0" value="0" unmaskedvalue="01"/>
          <field name="tcp.options.type.number" showname="...0 0001 = Number: No-Operation (NOP) (1)" size="1" pos="41" show="1" value="1" unmaskedvalue="01"/>
        </field>
      </field>
      <field name="" show="Timestamps: TSval 549487668, TSecr 3949899155" size="10" pos="42" value="080a20c08434eb6ead93">
        <field name="tcp.option_kind" showname="Kind: Time Stamp Option (8)" size="1" pos="42" show="8" value="08"/>
        <field name="tcp.option_len" showname="Length: 10" size="1" pos="43" show="10" value="0a"/>
        <field name="tcp.options.timestamp.tsval" showname="Timestamp value: 549487668" size="4" pos="44" show="549487668" value="20c08434"/>
        <field name="tcp.options.timestamp.tsecr" showname="Timestamp echo reply: 3949899155" size="4" pos="48" show="3949899155" value="eb6ead93"/>
      </field>
    </field>
    <field name="tcp.analysis" showname="SEQ/ACK analysis" size="0" pos="20" show="" value="">
      <field name="tcp.analysis.acks_frame" showname="This is an ACK to the segment in frame: 2" size="0" pos="20" show="2"/>
      <field name="tcp.analysis.ack_rtt" showname="The RTT to ACK the segment was: 0.001447000 seconds" size="0" pos="20" show="0.001447000"/>
      <field name="tcp.analysis.initial_rtt" showname="iRTT: 0.486390000 seconds" size="0" pos="20" show="0.486390000"/>
    </field>
  </proto>
</packet>


<packet>
  <proto name="geninfo" pos="0" showname="General information" size="427">
    <field name="num" pos="0" show="4" showname="Number" value="4" size="427"/>
    <field name="len" pos="0" show="427" showname="Frame Length" value="1ab" size="427"/>
    <field name="caplen" pos="0" show="427" showname="Captured Length" value="1ab" size="427"/>
    <field name="timestamp" pos="0" show="Jul  6, 2015 23:29:11.061060000 MDT" showname="Captured Time" value="1436246951.061060000" size="427"/>
  </proto>
  <proto name="frame" showname="Frame 4: 427 bytes on wire (3416 bits), 427 bytes captured (3416 bits)" size="427" pos="0">
    <field name="frame.encap_type" showname="Encapsulation type: Raw IP (7)" size="0" pos="0" show="7"/>
    <field name="frame.time" showname="Arrival Time: Jul  6, 2015 23:29:11.061060000 MDT" size="0" pos="0" show="Jul  6, 2015 23:29:11.061060000 MDT"/>
    <field name="frame.offset_shift" showname="Time shift for this packet: 0.000000000 seconds" size="0" pos="0" show="0.000000000"/>
    <field name="frame.time_epoch" showname="Epoch Time: 1436246951.061060000 seconds" size="0" pos="0" show="1436246951.061060000"/>
    <field name="frame.time_delta" showname="Time delta from previous captured frame: 0.000435000 seconds" size="0" pos="0" show="0.000435000"/>
    <field name="frame.time_delta_displayed" showname="Time delta from previous displayed frame: 0.000435000 seconds" size="0" pos="0" show="0.000435000"/>
    <field name="frame.time_relative" showname="Time since reference or first frame: 0.486825000 seconds" size="0" pos="0" show="0.486825000"/>
    <field name="frame.number" showname="Frame Number: 4" size="0" pos="0" show="4"/>
    <field name="frame.len" showname="Frame Length: 427 bytes (3416 bits)" size="0" pos="0" show="427"/>
    <field name="frame.cap_len" showname="Capture Length: 427 bytes (3416 bits)" size="0" pos="0" show="427"/>
    <field name="frame.marked" showname="Frame is marked: False" size="0" pos="0" show="0"/>
    <field name="frame.ignored" showname="Frame is ignored: False" size="0" pos="0" show="0"/>
    <field name="frame.protocols" showname="Protocols in frame: raw:ip:tcp:http" size="0" pos="0" show="raw:ip:tcp:http"/>
  </proto>
  <proto name="raw" showname="Raw packet data" size="427" pos="0"/>
  <proto name="ip" showname="Internet Protocol Version 4, Src: 0.0.0.0, Dst: 211.144.94.46" size="20" pos="0">
    <field name="ip.version" showname="0100 .... = Version: 4" size="1" pos="0" show="4" value="4" unmaskedvalue="45"/>
    <field name="ip.hdr_len" showname=".... 0101 = Header Length: 20 bytes (5)" size="1" pos="0" show="20" value="45"/>
    <field name="ip.dsfield" showname="Differentiated Services Field: 0x00 (DSCP: CS0, ECN: Not-ECT)" size="1" pos="1" show="0x00000000" value="00">
      <field name="ip.dsfield.dscp" showname="0000 00.. = Differentiated Services Codepoint: Default (0)" size="1" pos="1" show="0" value="0" unmaskedvalue="00"/>
      <field name="ip.dsfield.ecn" showname=".... ..00 = Explicit Congestion Notification: Not ECN-Capable Transport (0)" size="1" pos="1" show="0" value="0" unmaskedvalue="00"/>
    </field>
    <field name="ip.len" showname="Total Length: 427" size="2" pos="2" show="427" value="01ab"/>
    <field name="ip.id" showname="Identification: 0x4180 (16768)" size="2" pos="4" show="0x00004180" value="4180"/>
    <field name="ip.flags" showname="Flags: 0x02 (Don&#x27;t Fragment)" size="1" pos="6" show="0x00000002" value="40">
      <field name="ip.flags.rb" showname="0... .... = Reserved bit: Not set" size="1" pos="6" show="0" value="40"/>
      <field name="ip.flags.df" showname=".1.. .... = Don&#x27;t fragment: Set" size="1" pos="6" show="1" value="40"/>
      <field name="ip.flags.mf" showname="..0. .... = More fragments: Not set" size="1" pos="6" show="0" value="40"/>
    </field>
    <field name="ip.frag_offset" showname="Fragment offset: 0" size="2" pos="6" show="0" value="4000"/>
    <field name="ip.ttl" showname="Time to live: 60" size="1" pos="8" show="60" value="3c"/>
    <field name="ip.proto" showname="Protocol: TCP (6)" size="1" pos="9" show="6" value="06"/>
    <field name="ip.checksum" showname="Header checksum: 0x0000 [validation disabled]" size="2" pos="10" show="0x00000000" value="0000"/>
    <field name="ip.checksum.status" showname="Header checksum status: Unverified" size="0" pos="10" show="2"/>
    <field name="ip.src" showname="Source: 0.0.0.0" size="4" pos="12" show="0.0.0.0" value="00000000"/>
    <field name="ip.addr" showname="Source or Destination Address: 0.0.0.0" hide="yes" size="4" pos="12" show="0.0.0.0" value="00000000"/>
    <field name="ip.src_host" showname="Source Host: 0.0.0.0" hide="yes" size="4" pos="12" show="0.0.0.0" value="00000000"/>
    <field name="ip.host" showname="Source or Destination Host: 0.0.0.0" hide="yes" size="4" pos="12" show="0.0.0.0" value="00000000"/>
    <field name="ip.dst" showname="Destination: 211.144.94.46" size="4" pos="16" show="211.144.94.46" value="d3905e2e"/>
    <field name="ip.addr" showname="Source or Destination Address: 211.144.94.46" hide="yes" size="4" pos="16" show="211.144.94.46" value="d3905e2e"/>
    <field name="ip.dst_host" showname="Destination Host: 211.144.94.46" hide="yes" size="4" pos="16" show="211.144.94.46" value="d3905e2e"/>
    <field name="ip.host" showname="Source or Destination Host: 211.144.94.46" hide="yes" size="4" pos="16" show="211.144.94.46" value="d3905e2e"/>
    <field name="" show="Source GeoIP: Unknown" size="4" pos="12" value="00000000"/>
    <field name="" show="Destination GeoIP: Unknown" size="4" pos="16" value="d3905e2e"/>
  </proto>
  <proto name="tcp" showname="Transmission Control Protocol, Src Port: 61023, Dst Port: 80, Seq: 1, Ack: 1, Len: 375" size="32" pos="20">
    <field name="tcp.srcport" showname="Source Port: 61023" size="2" pos="20" show="61023" value="ee5f"/>
    <field name="tcp.dstport" showname="Destination Port: 80" size="2" pos="22" show="80" value="0050"/>
    <field name="tcp.port" showname="Source or Destination Port: 61023" hide="yes" size="2" pos="20" show="61023" value="ee5f"/>
    <field name="tcp.port" showname="Source or Destination Port: 80" hide="yes" size="2" pos="22" show="80" value="0050"/>
    <field name="tcp.stream" showname="Stream index: 0" size="0" pos="20" show="0"/>
    <field name="tcp.len" showname="TCP Segment Len: 375" size="1" pos="32" show="375" value="80"/>
    <field name="tcp.seq" showname="Sequence number: 1    (relative sequence number)" size="4" pos="24" show="1" value="efa6815f"/>
    <field name="tcp.nxtseq" showname="Next sequence number: 376    (relative sequence number)" size="0" pos="20" show="376"/>
    <field name="tcp.ack" showname="Acknowledgment number: 1    (relative ack number)" size="4" pos="28" show="1" value="c7ebfe83"/>
    <field name="tcp.hdr_len" showname="Header Length: 32 bytes" size="1" pos="32" show="32" value="80"/>
    <field name="tcp.flags" showname="Flags: 0x018 (PSH, ACK)" size="2" pos="32" show="0x00000018" value="18" unmaskedvalue="8018">
      <field name="tcp.flags.res" showname="000. .... .... = Reserved: Not set" size="1" pos="32" show="0" value="0" unmaskedvalue="80"/>
      <field name="tcp.flags.ns" showname="...0 .... .... = Nonce: Not set" size="1" pos="32" show="0" value="0" unmaskedvalue="80"/>
      <field name="tcp.flags.cwr" showname=".... 0... .... = Congestion Window Reduced (CWR): Not set" size="1" pos="33" show="0" value="0" unmaskedvalue="18"/>
      <field name="tcp.flags.ecn" showname=".... .0.. .... = ECN-Echo: Not set" size="1" pos="33" show="0" value="0" unmaskedvalue="18"/>
      <field name="tcp.flags.urg" showname=".... ..0. .... = Urgent: Not set" size="1" pos="33" show="0" value="0" unmaskedvalue="18"/>
      <field name="tcp.flags.ack" showname=".... ...1 .... = Acknowledgment: Set" size="1" pos="33" show="1" value="1" unmaskedvalue="18"/>
      <field name="tcp.flags.push" showname=".... .... 1... = Push: Set" size="1" pos="33" show="1" value="1" unmaskedvalue="18"/>
      <field name="tcp.flags.reset" showname=".... .... .0.. = Reset: Not set" size="1" pos="33" show="0" value="0" unmaskedvalue="18"/>
      <field name="tcp.flags.syn" showname=".... .... ..0. = Syn: Not set" size="1" pos="33" show="0" value="0" unmaskedvalue="18"/>
      <field name="tcp.flags.fin" showname=".... .... ...0 = Fin: Not set" size="1" pos="33" show="0" value="0" unmaskedvalue="18"/>
      <field name="tcp.flags.str" showname="TCP Flags: \xc2\xb7\xc2\xb7\xc2\xb7\xc2\xb7\xc2\xb7\xc2\xb7\xc2\xb7AP\xc2\xb7\xc2\xb7\xc2\xb7" size="2" pos="32" show="\xc2\xb7\xc2\xb7\xc2\xb7\xc2\xb7\xc2\xb7\xc2\xb7\xc2\xb7AP\xc2\xb7\xc2\xb7\xc2\xb7" value="8018"/>
    </field>
    <field name="tcp.window_size_value" showname="Window size value: 730" size="2" pos="34" show="730" value="02da"/>
    <field name="tcp.window_size" showname="Calculated window size: 5840" size="2" pos="34" show="5840" value="02da"/>
    <field name="tcp.window_size_scalefactor" showname="Window size scaling factor: 8" size="2" pos="34" show="8" value="02da"/>
    <field name="tcp.checksum" showname="Checksum: 0x0000 [unverified]" size="2" pos="36" show="0x00000000" value="0000"/>
    <field name="tcp.checksum.status" showname="Checksum Status: Unverified" size="0" pos="36" show="2"/>
    <field name="tcp.urgent_pointer" showname="Urgent pointer: 0" size="2" pos="38" show="0" value="0000"/>
    <field name="tcp.options" showname="Options: (12 bytes), No-Operation (NOP), No-Operation (NOP), Timestamps" size="12" pos="40" show="01:01:08:0a:20:c0:84:34:eb:6e:ad:93" value="0101080a20c08434eb6ead93">
      <field name="" show="No-Operation (NOP)" size="1" pos="40" value="01">
        <field name="tcp.options.type" showname="Type: 1" size="1" pos="40" show="1" value="01">
          <field name="tcp.options.type.copy" showname="0... .... = Copy on fragmentation: No" size="1" pos="40" show="0" value="0" unmaskedvalue="01"/>
          <field name="tcp.options.type.class" showname=".00. .... = Class: Control (0)" size="1" pos="40" show="0" value="0" unmaskedvalue="01"/>
          <field name="tcp.options.type.number" showname="...0 0001 = Number: No-Operation (NOP) (1)" size="1" pos="40" show="1" value="1" unmaskedvalue="01"/>
        </field>
      </field>
      <field name="" show="No-Operation (NOP)" size="1" pos="41" value="01">
        <field name="tcp.options.type" showname="Type: 1" size="1" pos="41" show="1" value="01">
          <field name="tcp.options.type.copy" showname="0... .... = Copy on fragmentation: No" size="1" pos="41" show="0" value="0" unmaskedvalue="01"/>
          <field name="tcp.options.type.class" showname=".00. .... = Class: Control (0)" size="1" pos="41" show="0" value="0" unmaskedvalue="01"/>
          <field name="tcp.options.type.number" showname="...0 0001 = Number: No-Operation (NOP) (1)" size="1" pos="41" show="1" value="1" unmaskedvalue="01"/>
        </field>
      </field>
      <field name="" show="Timestamps: TSval 549487668, TSecr 3949899155" size="10" pos="42" value="080a20c08434eb6ead93">
        <field name="tcp.option_kind" showname="Kind: Time Stamp Option (8)" size="1" pos="42" show="8" value="08"/>
        <field name="tcp.option_len" showname="Length: 10" size="1" pos="43" show="10" value="0a"/>
        <field name="tcp.options.timestamp.tsval" showname="Timestamp value: 549487668" size="4" pos="44" show="549487668" value="20c08434"/>
        <field name="tcp.options.timestamp.tsecr" showname="Timestamp echo reply: 3949899155" size="4" pos="48" show="3949899155" value="eb6ead93"/>
      </field>
    </field>
    <field name="tcp.analysis" showname="SEQ/ACK analysis" size="0" pos="20" show="" value="">
      <field name="tcp.analysis.initial_rtt" showname="iRTT: 0.486390000 seconds" size="0" pos="20" show="0.486390000"/>
      <field name="tcp.analysis.bytes_in_flight" showname="Bytes in flight: 375" size="0" pos="20" show="375"/>
      <field name="tcp.analysis.push_bytes_sent" showname="Bytes sent since last PSH flag: 375" size="0" pos="20" show="375"/>
    </field>
  </proto>
  <proto name="http" showname="Hypertext Transfer Protocol" size="375" pos="52">
    <field name="" show="GET /core.php?web_id=1253959227&amp;t=z HTTP/1.1\r\n" size="46" pos="52" value="474554202f636f72652e7068703f7765625f69643d3132353339353932323726743d7a20485454502f312e310d0a">
      <field name="_ws.expert" showname="Expert Info (Chat/Sequence): GET /core.php?web_id=1253959227&amp;t=z HTTP/1.1\r\n" size="0" pos="52">
        <field name="http.chat" showname="GET /core.php?web_id=1253959227&amp;t=z HTTP/1.1\r\n" size="0" pos="0" show="" value=""/>
        <field name="_ws.expert.message" showname="Message: GET /core.php?web_id=1253959227&amp;t=z HTTP/1.1\r\n" hide="yes" size="0" pos="0" show="GET /core.php?web_id=1253959227&amp;t=z HTTP/1.1\r\n"/>
        <field name="_ws.expert.severity" showname="Severity level: Chat" size="0" pos="0" show="2097152"/>
        <field name="_ws.expert.group" showname="Group: Sequence" size="0" pos="0" show="33554432"/>
      </field>
      <field name="http.request.method" showname="Request Method: GET" size="3" pos="52" show="GET" value="474554"/>
      <field name="http.request.uri" showname="Request URI: /core.php?web_id=1253959227&amp;t=z" size="31" pos="56" show="/core.php?web_id=1253959227&amp;t=z" value="2f636f72652e7068703f7765625f69643d3132353339353932323726743d7a">
        <field name="http.request.uri.path" showname="Request URI Path: /core.php" size="9" pos="56" show="/core.php" value="2f636f72652e706870"/>
        <field name="http.request.uri.query" showname="Request URI Query: web_id=1253959227&amp;t=z" size="21" pos="66" show="web_id=1253959227&amp;t=z" value="7765625f69643d3132353339353932323726743d7a">
          <field name="http.request.uri.query.parameter" showname="Request URI Query Parameter: web_id=1253959227" size="17" pos="66" show="web_id=1253959227" value="7765625f69643d31323533393539323237"/>
          <field name="http.request.uri.query.parameter" showname="Request URI Query Parameter: t=z" size="3" pos="84" show="t=z" value="743d7a"/>
        </field>
      </field>
      <field name="http.request.version" showname="Request Version: HTTP/1.1" size="8" pos="88" show="HTTP/1.1" value="485454502f312e31"/>
    </field>
    <field name="http.host" showname="Host: c.cnzz.com\r\n" size="18" pos="98" show="c.cnzz.com" value="486f73743a20632e636e7a7a2e636f6d0d0a"/>
    <field name="http.request.line" showname="Host: c.cnzz.com\r\n" hide="yes" size="18" pos="98" show="Host: c.cnzz.com\xd\xa" value="486f73743a20632e636e7a7a2e636f6d0d0a"/>
    <field name="http.connection" showname="Connection: keep-alive\r\n" size="24" pos="116" show="keep-alive" value="436f6e6e656374696f6e3a206b6565702d616c6976650d0a"/>
    <field name="http.request.line" showname="Connection: keep-alive\r\n" hide="yes" size="24" pos="116" show="Connection: keep-alive\xd\xa" value="436f6e6e656374696f6e3a206b6565702d616c6976650d0a"/>
    <field name="http.accept" showname="Accept: */*\r\n" size="13" pos="140" show="*/*" value="4163636570743a202a2f2a0d0a"/>
    <field name="http.request.line" showname="Accept: */*\r\n" hide="yes" size="13" pos="140" show="Accept: */*\xd\xa" value="4163636570743a202a2f2a0d0a"/>
    <field name="http.user_agent" showname="User-Agent: Mozilla/5.0 (Windows NT 6.1) AppleWebKit/537.36 (KHTML, like Gecko) Chrome/31.0.1650.63 Safari/537.36\r\n" size="115" pos="153" show="Mozilla/5.0 (Windows NT 6.1) AppleWebKit/537.36 (KHTML, like Gecko) Chrome/31.0.1650.63 Safari/537.36" value="557365722d4167656e743a204d6f7a696c6c612f352e30202857696e646f7773204e5420362e3129204170706c655765624b69742f3533372e333620284b48544d4c2c206c696b65204765636b6f29204368726f6d652f33312e302e313635302e3633205361666172692f3533372e33360d0a"/>
    <field name="http.request.line" showname="User-Agent: Mozilla/5.0 (Windows NT 6.1) AppleWebKit/537.36 (KHTML, like Gecko) Chrome/31.0.1650.63 Safari/537.36\r\n" hide="yes" size="115" pos="153" show="User-Agent: Mozilla/5.0 (Windows NT 6.1) AppleWebKit/537.36 (KHTML, like Gecko) Chrome/31.0.1650.63 Safari/537.36\xd\xa" value="557365722d4167656e743a204d6f7a696c6c612f352e30202857696e646f7773204e5420362e3129204170706c655765624b69742f3533372e333620284b48544d4c2c206c696b65204765636b6f29204368726f6d652f33312e302e313635302e3633205361666172692f3533372e33360d0a"/>
    <field name="http.accept_encoding" showname="Accept-Encoding: gzip,deflate,sdch\r\n" size="36" pos="268" show="gzip,deflate,sdch" value="4163636570742d456e636f64696e673a20677a69702c6465666c6174652c736463680d0a"/>
    <field name="http.request.line" showname="Accept-Encoding: gzip,deflate,sdch\r\n" hide="yes" size="36" pos="268" show="Accept-Encoding: gzip,deflate,sdch\xd\xa" value="4163636570742d456e636f64696e673a20677a69702c6465666c6174652c736463680d0a"/>
    <field name="http.accept_language" showname="Accept-Language: zh-CN,zh;q=0.8\r\n" size="33" pos="304" show="zh-CN,zh;q=0.8" value="4163636570742d4c616e67756167653a207a682d434e2c7a683b713d302e380d0a"/>
    <field name="http.request.line" showname="Accept-Language: zh-CN,zh;q=0.8\r\n" hide="yes" size="33" pos="304" show="Accept-Language: zh-CN,zh;q=0.8\xd\xa" value="4163636570742d4c616e67756167653a207a682d434e2c7a683b713d302e380d0a"/>
    <field name="http.cookie" showname="Cookie: cna=Mpy/DZ3B7UMCAXzNKYJAQKfS\r\n" size="38" pos="337" show="cna=Mpy/DZ3B7UMCAXzNKYJAQKfS" value="436f6f6b69653a20636e613d4d70792f445a334237554d4341587a4e4b594a41514b66530d0a">
      <field name="http.cookie_pair" showname="Cookie pair: cna=Mpy/DZ3B7UMCAXzNKYJAQKfS" size="28" pos="345" show="cna=Mpy/DZ3B7UMCAXzNKYJAQKfS" value="636e613d4d70792f445a334237554d4341587a4e4b594a41514b6653"/>
    </field>
    <field name="http.request.line" showname="Cookie: cna=Mpy/DZ3B7UMCAXzNKYJAQKfS\r\n" hide="yes" size="38" pos="337" show="Cookie: cna=Mpy/DZ3B7UMCAXzNKYJAQKfS\xd\xa" value="436f6f6b69653a20636e613d4d70792f445a334237554d4341587a4e4b594a41514b66530d0a"/>
    <field name="http.request.line" showname="If-Modified-Since: Tue, 07 Jul 2015 05:13:23 GMT\r\n" size="50" pos="375" show="If-Modified-Since: Tue, 07 Jul 2015 05:13:23 GMT\xd\xa" value="49662d4d6f6469666965642d53696e63653a205475652c203037204a756c20323031352030353a31333a323320474d540d0a"/>
    <field name="" show="\r\n" size="2" pos="425" value="0d0a"/>
    <field name="http.request.full_uri" showname="Full request URI: http://c.cnzz.com/core.php?web_id=1253959227&amp;t=z" size="0" pos="52" show="http://c.cnzz.com/core.php?web_id=1253959227&amp;t=z"/>
    <field name="http.request" showname="Request: True" hide="yes" size="0" pos="52" show="1"/>
    <field name="http.request_number" showname="HTTP request 1/1" size="0" pos="52" show="1"/>
  </proto>
</packet>


<packet>
  <proto name="geninfo" pos="0" showname="General information" size="60">
    <field name="num" pos="0" show="5" showname="Number" value="5" size="60"/>
    <field name="len" pos="0" show="60" showname="Frame Length" value="3c" size="60"/>
    <field name="caplen" pos="0" show="60" showname="Captured Length" value="3c" size="60"/>
    <field name="timestamp" pos="0" show="Jul  6, 2015 23:29:11.339521000 MDT" showname="Captured Time" value="1436246951.339521000" size="60"/>
  </proto>
  <proto name="frame" showname="Frame 5: 60 bytes on wire (480 bits), 60 bytes captured (480 bits)" size="60" pos="0">
    <field name="frame.encap_type" showname="Encapsulation type: Raw IP (7)" size="0" pos="0" show="7"/>
    <field name="frame.time" showname="Arrival Time: Jul  6, 2015 23:29:11.339521000 MDT" size="0" pos="0" show="Jul  6, 2015 23:29:11.339521000 MDT"/>
    <field name="frame.offset_shift" showname="Time shift for this packet: 0.000000000 seconds" size="0" pos="0" show="0.000000000"/>
    <field name="frame.time_epoch" showname="Epoch Time: 1436246951.339521000 seconds" size="0" pos="0" show="1436246951.339521000"/>
    <field name="frame.time_delta" showname="Time delta from previous captured frame: 0.278461000 seconds" size="0" pos="0" show="0.278461000"/>
    <field name="frame.time_delta_displayed" showname="Time delta from previous displayed frame: 0.278461000 seconds" size="0" pos="0" show="0.278461000"/>
    <field name="frame.time_relative" showname="Time since reference or first frame: 0.765286000 seconds" size="0" pos="0" show="0.765286000"/>
    <field name="frame.number" showname="Frame Number: 5" size="0" pos="0" show="5"/>
    <field name="frame.len" showname="Frame Length: 60 bytes (480 bits)" size="0" pos="0" show="60"/>
    <field name="frame.cap_len" showname="Capture Length: 60 bytes (480 bits)" size="0" pos="0" show="60"/>
    <field name="frame.marked" showname="Frame is marked: False" size="0" pos="0" show="0"/>
    <field name="frame.ignored" showname="Frame is ignored: False" size="0" pos="0" show="0"/>
    <field name="frame.protocols" showname="Protocols in frame: raw:ip:tcp" size="0" pos="0" show="raw:ip:tcp"/>
  </proto>
  <proto name="raw" showname="Raw packet data" size="60" pos="0"/>
  <proto name="ip" showname="Internet Protocol Version 4, Src: 211.144.94.46, Dst: 0.0.0.0" size="20" pos="0">
    <field name="ip.version" showname="0100 .... = Version: 4" size="1" pos="0" show="4" value="4" unmaskedvalue="45"/>
    <field name="ip.hdr_len" showname=".... 0101 = Header Length: 20 bytes (5)" size="1" pos="0" show="20" value="45"/>
    <field name="ip.dsfield" showname="Differentiated Services Field: 0x80 (DSCP: CS4, ECN: Not-ECT)" size="1" pos="1" show="0x00000080" value="80">
      <field name="ip.dsfield.dscp" showname="1000 00.. = Differentiated Services Codepoint: Class Selector 4 (32)" size="1" pos="1" show="32" value="20" unmaskedvalue="80"/>
      <field name="ip.dsfield.ecn" showname=".... ..00 = Explicit Congestion Notification: Not ECN-Capable Transport (0)" size="1" pos="1" show="0" value="0" unmaskedvalue="80"/>
    </field>
    <field name="ip.len" showname="Total Length: 60" size="2" pos="2" show="60" value="003c"/>
    <field name="ip.id" showname="Identification: 0x0000 (0)" size="2" pos="4" show="0x00000000" value="0000"/>
    <field name="ip.flags" showname="Flags: 0x02 (Don&#x27;t Fragment)" size="1" pos="6" show="0x00000002" value="40">
      <field name="ip.flags.rb" showname="0... .... = Reserved bit: Not set" size="1" pos="6" show="0" value="40"/>
      <field name="ip.flags.df" showname=".1.. .... = Don&#x27;t fragment: Set" size="1" pos="6" show="1" value="40"/>
      <field name="ip.flags.mf" showname="..0. .... = More fragments: Not set" size="1" pos="6" show="0" value="40"/>
    </field>
    <field name="ip.frag_offset" showname="Fragment offset: 0" size="2" pos="6" show="0" value="4000"/>
    <field name="ip.ttl" showname="Time to live: 38" size="1" pos="8" show="38" value="26"/>
    <field name="ip.proto" showname="Protocol: TCP (6)" size="1" pos="9" show="6" value="06"/>
    <field name="ip.checksum" showname="Header checksum: 0x0000 [validation disabled]" size="2" pos="10" show="0x00000000" value="0000"/>
    <field name="ip.checksum.status" showname="Header checksum status: Unverified" size="0" pos="10" show="2"/>
    <field name="ip.src" showname="Source: 211.144.94.46" size="4" pos="12" show="211.144.94.46" value="d3905e2e"/>
    <field name="ip.addr" showname="Source or Destination Address: 211.144.94.46" hide="yes" size="4" pos="12" show="211.144.94.46" value="d3905e2e"/>
    <field name="ip.src_host" showname="Source Host: 211.144.94.46" hide="yes" size="4" pos="12" show="211.144.94.46" value="d3905e2e"/>
    <field name="ip.host" showname="Source or Destination Host: 211.144.94.46" hide="yes" size="4" pos="12" show="211.144.94.46" value="d3905e2e"/>
    <field name="ip.dst" showname="Destination: 0.0.0.0" size="4" pos="16" show="0.0.0.0" value="00000000"/>
    <field name="ip.addr" showname="Source or Destination Address: 0.0.0.0" hide="yes" size="4" pos="16" show="0.0.0.0" value="00000000"/>
    <field name="ip.dst_host" showname="Destination Host: 0.0.0.0" hide="yes" size="4" pos="16" show="0.0.0.0" value="00000000"/>
    <field name="ip.host" showname="Source or Destination Host: 0.0.0.0" hide="yes" size="4" pos="16" show="0.0.0.0" value="00000000"/>
    <field name="" show="Source GeoIP: Unknown" size="4" pos="12" value="d3905e2e"/>
    <field name="" show="Destination GeoIP: Unknown" size="4" pos="16" value="00000000"/>
  </proto>
  <proto name="tcp" showname="Transmission Control Protocol, Src Port: 80, Dst Port: 61023, Seq: 0, Ack: 1, Len: 0" size="40" pos="20">
    <field name="tcp.srcport" showname="Source Port: 80" size="2" pos="20" show="80" value="0050"/>
    <field name="tcp.dstport" showname="Destination Port: 61023" size="2" pos="22" show="61023" value="ee5f"/>
    <field name="tcp.port" showname="Source or Destination Port: 80" hide="yes" size="2" pos="20" show="80" value="0050"/>
    <field name="tcp.port" showname="Source or Destination Port: 61023" hide="yes" size="2" pos="22" show="61023" value="ee5f"/>
    <field name="tcp.stream" showname="Stream index: 0" size="0" pos="20" show="0"/>
    <field name="tcp.len" showname="TCP Segment Len: 0" size="1" pos="32" show="0" value="a0"/>
    <field name="tcp.seq" showname="Sequence number: 0    (relative sequence number)" size="4" pos="24" show="0" value="c7ebfe82"/>
    <field name="tcp.ack" showname="Acknowledgment number: 1    (relative ack number)" size="4" pos="28" show="1" value="efa6815f"/>
    <field name="tcp.hdr_len" showname="Header Length: 40 bytes" size="1" pos="32" show="40" value="a0"/>
    <field name="tcp.flags" showname="Flags: 0x012 (SYN, ACK)" size="2" pos="32" show="0x00000012" value="12" unmaskedvalue="a012">
      <field name="tcp.flags.res" showname="000. .... .... = Reserved: Not set" size="1" pos="32" show="0" value="0" unmaskedvalue="a0"/>
      <field name="tcp.flags.ns" showname="...0 .... .... = Nonce: Not set" size="1" pos="32" show="0" value="0" unmaskedvalue="a0"/>
      <field name="tcp.flags.cwr" showname=".... 0... .... = Congestion Window Reduced (CWR): Not set" size="1" pos="33" show="0" value="0" unmaskedvalue="12"/>
      <field name="tcp.flags.ecn" showname=".... .0.. .... = ECN-Echo: Not set" size="1" pos="33" show="0" value="0" unmaskedvalue="12"/>
      <field name="tcp.flags.urg" showname=".... ..0. .... = Urgent: Not set" size="1" pos="33" show="0" value="0" unmaskedvalue="12"/>
      <field name="tcp.flags.ack" showname=".... ...1 .... = Acknowledgment: Set" size="1" pos="33" show="1" value="1" unmaskedvalue="12"/>
      <field name="tcp.flags.push" showname=".... .... 0... = Push: Not set" size="1" pos="33" show="0" value="0" unmaskedvalue="12"/>
      <field name="tcp.flags.reset" showname=".... .... .0.. = Reset: Not set" size="1" pos="33" show="0" value="0" unmaskedvalue="12"/>
      <field name="tcp.flags.syn" showname=".... .... ..1. = Syn: Set" size="1" pos="33" show="1" value="1" unmaskedvalue="12">
        <field name="_ws.expert" showname="Expert Info (Chat/Sequence): Connection establish acknowledge (SYN+ACK): server port 80" size="0" pos="33">
          <field name="tcp.connection.sack" showname="Connection establish acknowledge (SYN+ACK): server port 80" size="0" pos="0" show="" value=""/>
          <field name="_ws.expert.message" showname="Message: Connection establish acknowledge (SYN+ACK): server port 80" hide="yes" size="0" pos="0" show="Connection establish acknowledge (SYN+ACK): server port 80"/>
          <field name="_ws.expert.severity" showname="Severity level: Chat" size="0" pos="0" show="2097152"/>
          <field name="_ws.expert.group" showname="Group: Sequence" size="0" pos="0" show="33554432"/>
        </field>
      </field>
      <field name="tcp.flags.fin" showname=".... .... ...0 = Fin: Not set" size="1" pos="33" show="0" value="0" unmaskedvalue="12"/>
      <field name="tcp.flags.str" showname="TCP Flags: \xc2\xb7\xc2\xb7\xc2\xb7\xc2\xb7\xc2\xb7\xc2\xb7\xc2\xb7A\xc2\xb7\xc2\xb7S\xc2\xb7" size="2" pos="32" show="\xc2\xb7\xc2\xb7\xc2\xb7\xc2\xb7\xc2\xb7\xc2\xb7\xc2\xb7A\xc2\xb7\xc2\xb7S\xc2\xb7" value="a012"/>
    </field>
    <field name="tcp.window_size_value" showname="Window size value: 14480" size="2" pos="34" show="14480" value="3890"/>
    <field name="tcp.window_size" showname="Calculated window size: 14480" size="2" pos="34" show="14480" value="3890"/>
    <field name="tcp.checksum" showname="Checksum: 0x0000 [unverified]" size="2" pos="36" show="0x00000000" value="0000"/>
    <field name="tcp.checksum.status" showname="Checksum Status: Unverified" size="0" pos="36" show="2"/>
    <field name="tcp.urgent_pointer" showname="Urgent pointer: 0" size="2" pos="38" show="0" value="0000"/>
    <field name="tcp.options" showname="Options: (20 bytes), Maximum segment size, SACK permitted, Timestamps, No-Operation (NOP), Window scale" size="20" pos="40" show="02:04:05:b4:04:02:08:0a:eb:6e:ae:ab:20:c0:84:04:01:03:03:09" value="020405b40402080aeb6eaeab20c0840401030309">
      <field name="tcp.options.mss" showname="Maximum segment size: 1460 bytes" size="4" pos="40" show="" value="">
        <field name="tcp.option_kind" showname="Kind: Maximum Segment Size (2)" size="1" pos="40" show="2" value="02"/>
        <field name="tcp.option_len" showname="Length: 4" size="1" pos="41" show="4" value="04"/>
        <field name="tcp.options.mss_val" showname="MSS Value: 1460" size="2" pos="42" show="1460" value="05b4"/>
      </field>
      <field name="tcp.options.sack_perm" showname="TCP SACK Permitted Option: True" size="2" pos="44" show="1" value="0402">
        <field name="tcp.option_kind" showname="Kind: SACK Permitted (4)" size="1" pos="44" show="4" value="04"/>
        <field name="tcp.option_len" showname="Length: 2" size="1" pos="45" show="2" value="02"/>
      </field>
      <field name="" show="Timestamps: TSval 3949899435, TSecr 549487620" size="10" pos="46" value="080aeb6eaeab20c08404">
        <field name="tcp.option_kind" showname="Kind: Time Stamp Option (8)" size="1" pos="46" show="8" value="08"/>
        <field name="tcp.option_len" showname="Length: 10" size="1" pos="47" show="10" value="0a"/>
        <field name="tcp.options.timestamp.tsval" showname="Timestamp value: 3949899435" size="4" pos="48" show="3949899435" value="eb6eaeab"/>
        <field name="tcp.options.timestamp.tsecr" showname="Timestamp echo reply: 549487620" size="4" pos="52" show="549487620" value="20c08404"/>
      </field>
      <field name="" show="No-Operation (NOP)" size="1" pos="56" value="01">
        <field name="tcp.options.type" showname="Type: 1" size="1" pos="56" show="1" value="01">
          <field name="tcp.options.type.copy" showname="0... .... = Copy on fragmentation: No" size="1" pos="56" show="0" value="0" unmaskedvalue="01"/>
          <field name="tcp.options.type.class" showname=".00. .... = Class: Control (0)" size="1" pos="56" show="0" value="0" unmaskedvalue="01"/>
          <field name="tcp.options.type.number" showname="...0 0001 = Number: No-Operation (NOP) (1)" size="1" pos="56" show="1" value="1" unmaskedvalue="01"/>
        </field>
      </field>
      <field name="" show="Window scale: 9 (multiply by 512)" size="3" pos="57" value="030309">
        <field name="tcp.option_kind" showname="Kind: Window Scale (3)" size="1" pos="57" show="3" value="03"/>
        <field name="tcp.option_len" showname="Length: 3" size="1" pos="58" show="3" value="03"/>
        <field name="tcp.options.wscale.shift" showname="Shift count: 9" size="1" pos="59" show="9" value="09"/>
        <field name="tcp.options.wscale.multiplier" showname="Multiplier: 512" size="1" pos="59" show="512" value="09"/>
      </field>
    </field>
    <field name="tcp.analysis" showname="SEQ/ACK analysis" size="0" pos="20" show="" value="">
      <field name="tcp.analysis.initial_rtt" showname="iRTT: 0.486390000 seconds" size="0" pos="20" show="0.486390000"/>
      <field name="tcp.analysis.flags" showname="TCP Analysis Flags" size="0" pos="20" show="" value="">
        <field name="_ws.expert" showname="Expert Info (Warning/Sequence): This frame is a (suspected) out-of-order segment" size="0" pos="20">
          <field name="tcp.analysis.out_of_order" showname="This frame is a (suspected) out-of-order segment" size="0" pos="0" show="" value=""/>
          <field name="_ws.expert.message" showname="Message: This frame is a (suspected) out-of-order segment" hide="yes" size="0" pos="0" show="This frame is a (suspected) out-of-order segment"/>
          <field name="_ws.expert.severity" showname="Severity level: Warning" size="0" pos="0" show="6291456"/>
          <field name="_ws.expert.group" showname="Group: Sequence" size="0" pos="0" show="33554432"/>
        </field>
      </field>
    </field>
  </proto>
</packet>


<packet>
  <proto name="geninfo" pos="0" showname="General information" size="64">
    <field name="num" pos="0" show="6" showname="Number" value="6" size="64"/>
    <field name="len" pos="0" show="64" showname="Frame Length" value="40" size="64"/>
    <field name="caplen" pos="0" show="64" showname="Captured Length" value="40" size="64"/>
    <field name="timestamp" pos="0" show="Jul  6, 2015 23:29:11.339662000 MDT" showname="Captured Time" value="1436246951.339662000" size="64"/>
  </proto>
  <proto name="frame" showname="Frame 6: 64 bytes on wire (512 bits), 64 bytes captured (512 bits)" size="64" pos="0">
    <field name="frame.encap_type" showname="Encapsulation type: Raw IP (7)" size="0" pos="0" show="7"/>
    <field name="frame.time" showname="Arrival Time: Jul  6, 2015 23:29:11.339662000 MDT" size="0" pos="0" show="Jul  6, 2015 23:29:11.339662000 MDT"/>
    <field name="frame.offset_shift" showname="Time shift for this packet: 0.000000000 seconds" size="0" pos="0" show="0.000000000"/>
    <field name="frame.time_epoch" showname="Epoch Time: 1436246951.339662000 seconds" size="0" pos="0" show="1436246951.339662000"/>
    <field name="frame.time_delta" showname="Time delta from previous captured frame: 0.000141000 seconds" size="0" pos="0" show="0.000141000"/>
    <field name="frame.time_delta_displayed" showname="Time delta from previous displayed frame: 0.000141000 seconds" size="0" pos="0" show="0.000141000"/>
    <field name="frame.time_relative" showname="Time since reference or first frame: 0.765427000 seconds" size="0" pos="0" show="0.765427000"/>
    <field name="frame.number" showname="Frame Number: 6" size="0" pos="0" show="6"/>
    <field name="frame.len" showname="Frame Length: 64 bytes (512 bits)" size="0" pos="0" show="64"/>
    <field name="frame.cap_len" showname="Capture Length: 64 bytes (512 bits)" size="0" pos="0" show="64"/>
    <field name="frame.marked" showname="Frame is marked: False" size="0" pos="0" show="0"/>
    <field name="frame.ignored" showname="Frame is ignored: False" size="0" pos="0" show="0"/>
    <field name="frame.protocols" showname="Protocols in frame: raw:ip:tcp" size="0" pos="0" show="raw:ip:tcp"/>
  </proto>
  <proto name="raw" showname="Raw packet data" size="64" pos="0"/>
  <proto name="ip" showname="Internet Protocol Version 4, Src: 0.0.0.0, Dst: 211.144.94.46" size="20" pos="0">
    <field name="ip.version" showname="0100 .... = Version: 4" size="1" pos="0" show="4" value="4" unmaskedvalue="45"/>
    <field name="ip.hdr_len" showname=".... 0101 = Header Length: 20 bytes (5)" size="1" pos="0" show="20" value="45"/>
    <field name="ip.dsfield" showname="Differentiated Services Field: 0x00 (DSCP: CS0, ECN: Not-ECT)" size="1" pos="1" show="0x00000000" value="00">
      <field name="ip.dsfield.dscp" showname="0000 00.. = Differentiated Services Codepoint: Default (0)" size="1" pos="1" show="0" value="0" unmaskedvalue="00"/>
      <field name="ip.dsfield.ecn" showname=".... ..00 = Explicit Congestion Notification: Not ECN-Capable Transport (0)" size="1" pos="1" show="0" value="0" unmaskedvalue="00"/>
    </field>
    <field name="ip.len" showname="Total Length: 64" size="2" pos="2" show="64" value="0040"/>
    <field name="ip.id" showname="Identification: 0x4181 (16769)" size="2" pos="4" show="0x00004181" value="4181"/>
    <field name="ip.flags" showname="Flags: 0x02 (Don&#x27;t Fragment)" size="1" pos="6" show="0x00000002" value="40">
      <field name="ip.flags.rb" showname="0... .... = Reserved bit: Not set" size="1" pos="6" show="0" value="40"/>
      <field name="ip.flags.df" showname=".1.. .... = Don&#x27;t fragment: Set" size="1" pos="6" show="1" value="40"/>
      <field name="ip.flags.mf" showname="..0. .... = More fragments: Not set" size="1" pos="6" show="0" value="40"/>
    </field>
    <field name="ip.frag_offset" showname="Fragment offset: 0" size="2" pos="6" show="0" value="4000"/>
    <field name="ip.ttl" showname="Time to live: 60" size="1" pos="8" show="60" value="3c"/>
    <field name="ip.proto" showname="Protocol: TCP (6)" size="1" pos="9" show="6" value="06"/>
    <field name="ip.checksum" showname="Header checksum: 0x0000 [validation disabled]" size="2" pos="10" show="0x00000000" value="0000"/>
    <field name="ip.checksum.status" showname="Header checksum status: Unverified" size="0" pos="10" show="2"/>
    <field name="ip.src" showname="Source: 0.0.0.0" size="4" pos="12" show="0.0.0.0" value="00000000"/>
    <field name="ip.addr" showname="Source or Destination Address: 0.0.0.0" hide="yes" size="4" pos="12" show="0.0.0.0" value="00000000"/>
    <field name="ip.src_host" showname="Source Host: 0.0.0.0" hide="yes" size="4" pos="12" show="0.0.0.0" value="00000000"/>
    <field name="ip.host" showname="Source or Destination Host: 0.0.0.0" hide="yes" size="4" pos="12" show="0.0.0.0" value="00000000"/>
    <field name="ip.dst" showname="Destination: 211.144.94.46" size="4" pos="16" show="211.144.94.46" value="d3905e2e"/>
    <field name="ip.addr" showname="Source or Destination Address: 211.144.94.46" hide="yes" size="4" pos="16" show="211.144.94.46" value="d3905e2e"/>
    <field name="ip.dst_host" showname="Destination Host: 211.144.94.46" hide="yes" size="4" pos="16" show="211.144.94.46" value="d3905e2e"/>
    <field name="ip.host" showname="Source or Destination Host: 211.144.94.46" hide="yes" size="4" pos="16" show="211.144.94.46" value="d3905e2e"/>
    <field name="" show="Source GeoIP: Unknown" size="4" pos="12" value="00000000"/>
    <field name="" show="Destination GeoIP: Unknown" size="4" pos="16" value="d3905e2e"/>
  </proto>
  <proto name="tcp" showname="Transmission Control Protocol, Src Port: 61023, Dst Port: 80, Seq: 376, Ack: 1, Len: 0" size="44" pos="20">
    <field name="tcp.srcport" showname="Source Port: 61023" size="2" pos="20" show="61023" value="ee5f"/>
    <field name="tcp.dstport" showname="Destination Port: 80" size="2" pos="22" show="80" value="0050"/>
    <field name="tcp.port" showname="Source or Destination Port: 61023" hide="yes" size="2" pos="20" show="61023" value="ee5f"/>
    <field name="tcp.port" showname="Source or Destination Port: 80" hide="yes" size="2" pos="22" show="80" value="0050"/>
    <field name="tcp.stream" showname="Stream index: 0" size="0" pos="20" show="0"/>
    <field name="tcp.len" showname="TCP Segment Len: 0" size="1" pos="32" show="0" value="b0"/>
    <field name="tcp.seq" showname="Sequence number: 376    (relative sequence number)" size="4" pos="24" show="376" value="efa682d6"/>
    <field name="tcp.ack" showname="Acknowledgment number: 1    (relative ack number)" size="4" pos="28" show="1" value="c7ebfe83"/>
    <field name="tcp.hdr_len" showname="Header Length: 44 bytes" size="1" pos="32" show="44" value="b0"/>
    <field name="tcp.flags" showname="Flags: 0x010 (ACK)" size="2" pos="32" show="0x00000010" value="10" unmaskedvalue="b010">
      <field name="tcp.flags.res" showname="000. .... .... = Reserved: Not set" size="1" pos="32" show="0" value="0" unmaskedvalue="b0"/>
      <field name="tcp.flags.ns" showname="...0 .... .... = Nonce: Not set" size="1" pos="32" show="0" value="0" unmaskedvalue="b0"/>
      <field name="tcp.flags.cwr" showname=".... 0... .... = Congestion Window Reduced (CWR): Not set" size="1" pos="33" show="0" value="0" unmaskedvalue="10"/>
      <field name="tcp.flags.ecn" showname=".... .0.. .... = ECN-Echo: Not set" size="1" pos="33" show="0" value="0" unmaskedvalue="10"/>
      <field name="tcp.flags.urg" showname=".... ..0. .... = Urgent: Not set" size="1" pos="33" show="0" value="0" unmaskedvalue="10"/>
      <field name="tcp.flags.ack" showname=".... ...1 .... = Acknowledgment: Set" size="1" pos="33" show="1" value="1" unmaskedvalue="10"/>
      <field name="tcp.flags.push" showname=".... .... 0... = Push: Not set" size="1" pos="33" show="0" value="0" unmaskedvalue="10"/>
      <field name="tcp.flags.reset" showname=".... .... .0.. = Reset: Not set" size="1" pos="33" show="0" value="0" unmaskedvalue="10"/>
      <field name="tcp.flags.syn" showname=".... .... ..0. = Syn: Not set" size="1" pos="33" show="0" value="0" unmaskedvalue="10"/>
      <field name="tcp.flags.fin" showname=".... .... ...0 = Fin: Not set" size="1" pos="33" show="0" value="0" unmaskedvalue="10"/>
      <field name="tcp.flags.str" showname="TCP Flags: \xc2\xb7\xc2\xb7\xc2\xb7\xc2\xb7\xc2\xb7\xc2\xb7\xc2\xb7A\xc2\xb7\xc2\xb7\xc2\xb7\xc2\xb7" size="2" pos="32" show="\xc2\xb7\xc2\xb7\xc2\xb7\xc2\xb7\xc2\xb7\xc2\xb7\xc2\xb7A\xc2\xb7\xc2\xb7\xc2\xb7\xc2\xb7" value="b010"/>
    </field>
    <field name="tcp.window_size_value" showname="Window size value: 730" size="2" pos="34" show="730" value="02da"/>
    <field name="tcp.window_size" showname="Calculated window size: 5840" size="2" pos="34" show="5840" value="02da"/>
    <field name="tcp.window_size_scalefactor" showname="Window size scaling factor: 8" size="2" pos="34" show="8" value="02da"/>
    <field name="tcp.checksum" showname="Checksum: 0x0000 [unverified]" size="2" pos="36" show="0x00000000" value="0000"/>
    <field name="tcp.checksum.status" showname="Checksum Status: Unverified" size="0" pos="36" show="2"/>
    <field name="tcp.urgent_pointer" showname="Urgent pointer: 0" size="2" pos="38" show="0" value="0000"/>
    <field name="tcp.options" showname="Options: (24 bytes), No-Operation (NOP), No-Operation (NOP), Timestamps, No-Operation (NOP), No-Operation (NOP), SACK" size="24" pos="40" show="01:01:08:0a:20:c0:84:50:eb:6e:ae:ab:01:01:05:0a:c7:eb:fe:82:c7:eb:fe:83" value="0101080a20c08450eb6eaeab0101050ac7ebfe82c7ebfe83">
      <field name="" show="No-Operation (NOP)" size="1" pos="40" value="01">
        <field name="tcp.options.type" showname="Type: 1" size="1" pos="40" show="1" value="01">
          <field name="tcp.options.type.copy" showname="0... .... = Copy on fragmentation: No" size="1" pos="40" show="0" value="0" unmaskedvalue="01"/>
          <field name="tcp.options.type.class" showname=".00. .... = Class: Control (0)" size="1" pos="40" show="0" value="0" unmaskedvalue="01"/>
          <field name="tcp.options.type.number" showname="...0 0001 = Number: No-Operation (NOP) (1)" size="1" pos="40" show="1" value="1" unmaskedvalue="01"/>
        </field>
      </field>
      <field name="" show="No-Operation (NOP)" size="1" pos="41" value="01">
        <field name="tcp.options.type" showname="Type: 1" size="1" pos="41" show="1" value="01">
          <field name="tcp.options.type.copy" showname="0... .... = Copy on fragmentation: No" size="1" pos="41" show="0" value="0" unmaskedvalue="01"/>
          <field name="tcp.options.type.class" showname=".00. .... = Class: Control (0)" size="1" pos="41" show="0" value="0" unmaskedvalue="01"/>
          <field name="tcp.options.type.number" showname="...0 0001 = Number: No-Operation (NOP) (1)" size="1" pos="41" show="1" value="1" unmaskedvalue="01"/>
        </field>
      </field>
      <field name="" show="Timestamps: TSval 549487696, TSecr 3949899435" size="10" pos="42" value="080a20c08450eb6eaeab">
        <field name="tcp.option_kind" showname="Kind: Time Stamp Option (8)" size="1" pos="42" show="8" value="08"/>
        <field name="tcp.option_len" showname="Length: 10" size="1" pos="43" show="10" value="0a"/>
        <field name="tcp.options.timestamp.tsval" showname="Timestamp value: 549487696" size="4" pos="44" show="549487696" value="20c08450"/>
        <field name="tcp.options.timestamp.tsecr" showname="Timestamp echo reply: 3949899435" size="4" pos="48" show="3949899435" value="eb6eaeab"/>
      </field>
      <field name="" show="No-Operation (NOP)" size="1" pos="52" value="01">
        <field name="tcp.options.type" showname="Type: 1" size="1" pos="52" show="1" value="01">
          <field name="tcp.options.type.copy" showname="0... .... = Copy on fragmentation: No" size="1" pos="52" show="0" value="0" unmaskedvalue="01"/>
          <field name="tcp.options.type.class" showname=".00. .... = Class: Control (0)" size="1" pos="52" show="0" value="0" unmaskedvalue="01"/>
          <field name="tcp.options.type.number" showname="...0 0001 = Number: No-Operation (NOP) (1)" size="1" pos="52" show="1" value="1" unmaskedvalue="01"/>
        </field>
      </field>
      <field name="" show="No-Operation (NOP)" size="1" pos="53" value="01">
        <field name="tcp.options.type" showname="Type: 1" size="1" pos="53" show="1" value="01">
          <field name="tcp.options.type.copy" showname="0... .... = Copy on fragmentation: No" size="1" pos="53" show="0" value="0" unmaskedvalue="01"/>
          <field name="tcp.options.type.class" showname=".00. .... = Class: Control (0)" size="1" pos="53" show="0" value="0" unmaskedvalue="01"/>
          <field name="tcp.options.type.number" showname="...0 0001 = Number: No-Operation (NOP) (1)" size="1" pos="53" show="1" value="1" unmaskedvalue="01"/>
        </field>
      </field>
      <field name="" show="SACK: 0-1" size="10" pos="54" value="050ac7ebfe82c7ebfe83">
        <field name="tcp.option_kind" showname="Kind: SACK (5)" size="1" pos="54" show="5" value="05"/>
        <field name="tcp.option_len" showname="Length: 10" size="1" pos="55" show="10" value="0a"/>
        <field name="tcp.options.sack" showname="TCP SACK Option: True" hide="yes" size="10" pos="54" show="1" value="050ac7ebfe82c7ebfe83"/>
        <field name="tcp.options.sack_le" showname="left edge = 0 (relative)" size="4" pos="56" show="0" value="c7ebfe82"/>
        <field name="tcp.options.sack_re" showname="right edge = 1 (relative)" size="4" pos="60" show="1" value="c7ebfe83"/>
        <field name="tcp.options.sack.count" showname="TCP SACK Count: 1" size="0" pos="74" show="1"/>
      </field>
    </field>
    <field name="tcp.analysis" showname="SEQ/ACK analysis" size="0" pos="20" show="" value="">
      <field name="tcp.analysis.acks_frame" showname="This is an ACK to the segment in frame: 5" size="0" pos="20" show="5"/>
      <field name="tcp.analysis.ack_rtt" showname="The RTT to ACK the segment was: 0.000141000 seconds" size="0" pos="20" show="0.000141000"/>
      <field name="tcp.analysis.initial_rtt" showname="iRTT: 0.486390000 seconds" size="0" pos="20" show="0.486390000"/>
      <field name="tcp.analysis.flags" showname="TCP Analysis Flags" size="0" pos="20" show="" value="">
        <field name="tcp.analysis.duplicate_ack" showname="This is a TCP duplicate ack" size="0" pos="20" show="" value=""/>
      </field>
      <field name="tcp.analysis.duplicate_ack_num" showname="Duplicate ACK #: 1" size="0" pos="20" show="1"/>
      <field name="tcp.analysis.duplicate_ack_frame" showname="Duplicate to the ACK in frame: 3" size="0" pos="20" show="3">
        <field name="_ws.expert" showname="Expert Info (Note/Sequence): Duplicate ACK (#1)" size="0" pos="20">
          <field name="tcp.analysis.duplicate_ack" showname="Duplicate ACK (#1)" size="0" pos="0" show="" value=""/>
          <field name="_ws.expert.message" showname="Message: Duplicate ACK (#1)" hide="yes" size="0" pos="0" show="Duplicate ACK (#1)"/>
          <field name="_ws.expert.severity" showname="Severity level: Note" size="0" pos="0" show="4194304"/>
          <field name="_ws.expert.group" showname="Group: Sequence" size="0" pos="0" show="33554432"/>
        </field>
      </field>
    </field>
  </proto>
</packet>


<packet>
  <proto name="geninfo" pos="0" showname="General information" size="52">
    <field name="num" pos="0" show="7" showname="Number" value="7" size="52"/>
    <field name="len" pos="0" show="52" showname="Frame Length" value="34" size="52"/>
    <field name="caplen" pos="0" show="52" showname="Captured Length" value="34" size="52"/>
    <field name="timestamp" pos="0" show="Jul  6, 2015 23:29:11.548160000 MDT" showname="Captured Time" value="1436246951.548160000" size="52"/>
  </proto>
  <proto name="frame" showname="Frame 7: 52 bytes on wire (416 bits), 52 bytes captured (416 bits)" size="52" pos="0">
    <field name="frame.encap_type" showname="Encapsulation type: Raw IP (7)" size="0" pos="0" show="7"/>
    <field name="frame.time" showname="Arrival Time: Jul  6, 2015 23:29:11.548160000 MDT" size="0" pos="0" show="Jul  6, 2015 23:29:11.548160000 MDT"/>
    <field name="frame.offset_shift" showname="Time shift for this packet: 0.000000000 seconds" size="0" pos="0" show="0.000000000"/>
    <field name="frame.time_epoch" showname="Epoch Time: 1436246951.548160000 seconds" size="0" pos="0" show="1436246951.548160000"/>
    <field name="frame.time_delta" showname="Time delta from previous captured frame: 0.208498000 seconds" size="0" pos="0" show="0.208498000"/>
    <field name="frame.time_delta_displayed" showname="Time delta from previous displayed frame: 0.208498000 seconds" size="0" pos="0" show="0.208498000"/>
    <field name="frame.time_relative" showname="Time since reference or first frame: 0.973925000 seconds" size="0" pos="0" show="0.973925000"/>
    <field name="frame.number" showname="Frame Number: 7" size="0" pos="0" show="7"/>
    <field name="frame.len" showname="Frame Length: 52 bytes (416 bits)" size="0" pos="0" show="52"/>
    <field name="frame.cap_len" showname="Capture Length: 52 bytes (416 bits)" size="0" pos="0" show="52"/>
    <field name="frame.marked" showname="Frame is marked: False" size="0" pos="0" show="0"/>
    <field name="frame.ignored" showname="Frame is ignored: False" size="0" pos="0" show="0"/>
    <field name="frame.protocols" showname="Protocols in frame: raw:ip:tcp" size="0" pos="0" show="raw:ip:tcp"/>
  </proto>
  <proto name="raw" showname="Raw packet data" size="52" pos="0"/>
  <proto name="ip" showname="Internet Protocol Version 4, Src: 211.144.94.46, Dst: 0.0.0.0" size="20" pos="0">
    <field name="ip.version" showname="0100 .... = Version: 4" size="1" pos="0" show="4" value="4" unmaskedvalue="45"/>
    <field name="ip.hdr_len" showname=".... 0101 = Header Length: 20 bytes (5)" size="1" pos="0" show="20" value="45"/>
    <field name="ip.dsfield" showname="Differentiated Services Field: 0x80 (DSCP: CS4, ECN: Not-ECT)" size="1" pos="1" show="0x00000080" value="80">
      <field name="ip.dsfield.dscp" showname="1000 00.. = Differentiated Services Codepoint: Class Selector 4 (32)" size="1" pos="1" show="32" value="20" unmaskedvalue="80"/>
      <field name="ip.dsfield.ecn" showname=".... ..00 = Explicit Congestion Notification: Not ECN-Capable Transport (0)" size="1" pos="1" show="0" value="0" unmaskedvalue="80"/>
    </field>
    <field name="ip.len" showname="Total Length: 52" size="2" pos="2" show="52" value="0034"/>
    <field name="ip.id" showname="Identification: 0x51f9 (20985)" size="2" pos="4" show="0x000051f9" value="51f9"/>
    <field name="ip.flags" showname="Flags: 0x02 (Don&#x27;t Fragment)" size="1" pos="6" show="0x00000002" value="40">
      <field name="ip.flags.rb" showname="0... .... = Reserved bit: Not set" size="1" pos="6" show="0" value="40"/>
      <field name="ip.flags.df" showname=".1.. .... = Don&#x27;t fragment: Set" size="1" pos="6" show="1" value="40"/>
      <field name="ip.flags.mf" showname="..0. .... = More fragments: Not set" size="1" pos="6" show="0" value="40"/>
    </field>
    <field name="ip.frag_offset" showname="Fragment offset: 0" size="2" pos="6" show="0" value="4000"/>
    <field name="ip.ttl" showname="Time to live: 38" size="1" pos="8" show="38" value="26"/>
    <field name="ip.proto" showname="Protocol: TCP (6)" size="1" pos="9" show="6" value="06"/>
    <field name="ip.checksum" showname="Header checksum: 0x0000 [validation disabled]" size="2" pos="10" show="0x00000000" value="0000"/>
    <field name="ip.checksum.status" showname="Header checksum status: Unverified" size="0" pos="10" show="2"/>
    <field name="ip.src" showname="Source: 211.144.94.46" size="4" pos="12" show="211.144.94.46" value="d3905e2e"/>
    <field name="ip.addr" showname="Source or Destination Address: 211.144.94.46" hide="yes" size="4" pos="12" show="211.144.94.46" value="d3905e2e"/>
    <field name="ip.src_host" showname="Source Host: 211.144.94.46" hide="yes" size="4" pos="12" show="211.144.94.46" value="d3905e2e"/>
    <field name="ip.host" showname="Source or Destination Host: 211.144.94.46" hide="yes" size="4" pos="12" show="211.144.94.46" value="d3905e2e"/>
    <field name="ip.dst" showname="Destination: 0.0.0.0" size="4" pos="16" show="0.0.0.0" value="00000000"/>
    <field name="ip.addr" showname="Source or Destination Address: 0.0.0.0" hide="yes" size="4" pos="16" show="0.0.0.0" value="00000000"/>
    <field name="ip.dst_host" showname="Destination Host: 0.0.0.0" hide="yes" size="4" pos="16" show="0.0.0.0" value="00000000"/>
    <field name="ip.host" showname="Source or Destination Host: 0.0.0.0" hide="yes" size="4" pos="16" show="0.0.0.0" value="00000000"/>
    <field name="" show="Source GeoIP: Unknown" size="4" pos="12" value="d3905e2e"/>
    <field name="" show="Destination GeoIP: Unknown" size="4" pos="16" value="00000000"/>
  </proto>
  <proto name="tcp" showname="Transmission Control Protocol, Src Port: 80, Dst Port: 61023, Seq: 1, Ack: 376, Len: 0" size="32" pos="20">
    <field name="tcp.srcport" showname="Source Port: 80" size="2" pos="20" show="80" value="0050"/>
    <field name="tcp.dstport" showname="Destination Port: 61023" size="2" pos="22" show="61023" value="ee5f"/>
    <field name="tcp.port" showname="Source or Destination Port: 80" hide="yes" size="2" pos="20" show="80" value="0050"/>
    <field name="tcp.port" showname="Source or Destination Port: 61023" hide="yes" size="2" pos="22" show="61023" value="ee5f"/>
    <field name="tcp.stream" showname="Stream index: 0" size="0" pos="20" show="0"/>
    <field name="tcp.len" showname="TCP Segment Len: 0" size="1" pos="32" show="0" value="80"/>
    <field name="tcp.seq" showname="Sequence number: 1    (relative sequence number)" size="4" pos="24" show="1" value="c7ebfe83"/>
    <field name="tcp.ack" showname="Acknowledgment number: 376    (relative ack number)" size="4" pos="28" show="376" value="efa682d6"/>
    <field name="tcp.hdr_len" showname="Header Length: 32 bytes" size="1" pos="32" show="32" value="80"/>
    <field name="tcp.flags" showname="Flags: 0x010 (ACK)" size="2" pos="32" show="0x00000010" value="10" unmaskedvalue="8010">
      <field name="tcp.flags.res" showname="000. .... .... = Reserved: Not set" size="1" pos="32" show="0" value="0" unmaskedvalue="80"/>
      <field name="tcp.flags.ns" showname="...0 .... .... = Nonce: Not set" size="1" pos="32" show="0" value="0" unmaskedvalue="80"/>
      <field name="tcp.flags.cwr" showname=".... 0... .... = Congestion Window Reduced (CWR): Not set" size="1" pos="33" show="0" value="0" unmaskedvalue="10"/>
      <field name="tcp.flags.ecn" showname=".... .0.. .... = ECN-Echo: Not set" size="1" pos="33" show="0" value="0" unmaskedvalue="10"/>
      <field name="tcp.flags.urg" showname=".... ..0. .... = Urgent: Not set" size="1" pos="33" show="0" value="0" unmaskedvalue="10"/>
      <field name="tcp.flags.ack" showname=".... ...1 .... = Acknowledgment: Set" size="1" pos="33" show="1" value="1" unmaskedvalue="10"/>
      <field name="tcp.flags.push" showname=".... .... 0... = Push: Not set" size="1" pos="33" show="0" value="0" unmaskedvalue="10"/>
      <field name="tcp.flags.reset" showname=".... .... .0.. = Reset: Not set" size="1" pos="33" show="0" value="0" unmaskedvalue="10"/>
      <field name="tcp.flags.syn" showname=".... .... ..0. = Syn: Not set" size="1" pos="33" show="0" value="0" unmaskedvalue="10"/>
      <field name="tcp.flags.fin" showname=".... .... ...0 = Fin: Not set" size="1" pos="33" show="0" value="0" unmaskedvalue="10"/>
      <field name="tcp.flags.str" showname="TCP Flags: \xc2\xb7\xc2\xb7\xc2\xb7\xc2\xb7\xc2\xb7\xc2\xb7\xc2\xb7A\xc2\xb7\xc2\xb7\xc2\xb7\xc2\xb7" size="2" pos="32" show="\xc2\xb7\xc2\xb7\xc2\xb7\xc2\xb7\xc2\xb7\xc2\xb7\xc2\xb7A\xc2\xb7\xc2\xb7\xc2\xb7\xc2\xb7" value="8010"/>
    </field>
    <field name="tcp.window_size_value" showname="Window size value: 31" size="2" pos="34" show="31" value="001f"/>
    <field name="tcp.window_size" showname="Calculated window size: 15872" size="2" pos="34" show="15872" value="001f"/>
    <field name="tcp.window_size_scalefactor" showname="Window size scaling factor: 512" size="2" pos="34" show="512" value="001f"/>
    <field name="tcp.checksum" showname="Checksum: 0x0000 [unverified]" size="2" pos="36" show="0x00000000" value="0000"/>
    <field name="tcp.checksum.status" showname="Checksum Status: Unverified" size="0" pos="36" show="2"/>
    <field name="tcp.urgent_pointer" showname="Urgent pointer: 0" size="2" pos="38" show="0" value="0000"/>
    <field name="tcp.options" showname="Options: (12 bytes), No-Operation (NOP), No-Operation (NOP), Timestamps" size="12" pos="40" show="01:01:08:0a:eb:6e:af:7a:20:c0:84:34" value="0101080aeb6eaf7a20c08434">
      <field name="" show="No-Operation (NOP)" size="1" pos="40" value="01">
        <field name="tcp.options.type" showname="Type: 1" size="1" pos="40" show="1" value="01">
          <field name="tcp.options.type.copy" showname="0... .... = Copy on fragmentation: No" size="1" pos="40" show="0" value="0" unmaskedvalue="01"/>
          <field name="tcp.options.type.class" showname=".00. .... = Class: Control (0)" size="1" pos="40" show="0" value="0" unmaskedvalue="01"/>
          <field name="tcp.options.type.number" showname="...0 0001 = Number: No-Operation (NOP) (1)" size="1" pos="40" show="1" value="1" unmaskedvalue="01"/>
        </field>
      </field>
      <field name="" show="No-Operation (NOP)" size="1" pos="41" value="01">
        <field name="tcp.options.type" showname="Type: 1" size="1" pos="41" show="1" value="01">
          <field name="tcp.options.type.copy" showname="0... .... = Copy on fragmentation: No" size="1" pos="41" show="0" value="0" unmaskedvalue="01"/>
          <field name="tcp.options.type.class" showname=".00. .... = Class: Control (0)" size="1" pos="41" show="0" value="0" unmaskedvalue="01"/>
          <field name="tcp.options.type.number" showname="...0 0001 = Number: No-Operation (NOP) (1)" size="1" pos="41" show="1" value="1" unmaskedvalue="01"/>
        </field>
      </field>
      <field name="" show="Timestamps: TSval 3949899642, TSecr 549487668" size="10" pos="42" value="080aeb6eaf7a20c08434">
        <field name="tcp.option_kind" showname="Kind: Time Stamp Option (8)" size="1" pos="42" show="8" value="08"/>
        <field name="tcp.option_len" showname="Length: 10" size="1" pos="43" show="10" value="0a"/>
        <field name="tcp.options.timestamp.tsval" showname="Timestamp value: 3949899642" size="4" pos="44" show="3949899642" value="eb6eaf7a"/>
        <field name="tcp.options.timestamp.tsecr" showname="Timestamp echo reply: 549487668" size="4" pos="48" show="549487668" value="20c08434"/>
      </field>
    </field>
    <field name="tcp.analysis" showname="SEQ/ACK analysis" size="0" pos="20" show="" value="">
      <field name="tcp.analysis.acks_frame" showname="This is an ACK to the segment in frame: 4" size="0" pos="20" show="4"/>
      <field name="tcp.analysis.ack_rtt" showname="The RTT to ACK the segment was: 0.487100000 seconds" size="0" pos="20" show="0.487100000"/>
      <field name="tcp.analysis.initial_rtt" showname="iRTT: 0.486390000 seconds" size="0" pos="20" show="0.486390000"/>
    </field>
  </proto>
</packet>


<packet>
  <proto name="geninfo" pos="0" showname="General information" size="1274">
    <field name="num" pos="0" show="8" showname="Number" value="8" size="1274"/>
    <field name="len" pos="0" show="1274" showname="Frame Length" value="4fa" size="1274"/>
    <field name="caplen" pos="0" show="1274" showname="Captured Length" value="4fa" size="1274"/>
    <field name="timestamp" pos="0" show="Jul  6, 2015 23:29:11.548360000 MDT" showname="Captured Time" value="1436246951.548360000" size="1274"/>
  </proto>
  <proto name="frame" showname="Frame 8: 1274 bytes on wire (10192 bits), 1274 bytes captured (10192 bits)" size="1274" pos="0">
    <field name="frame.encap_type" showname="Encapsulation type: Raw IP (7)" size="0" pos="0" show="7"/>
    <field name="frame.time" showname="Arrival Time: Jul  6, 2015 23:29:11.548360000 MDT" size="0" pos="0" show="Jul  6, 2015 23:29:11.548360000 MDT"/>
    <field name="frame.offset_shift" showname="Time shift for this packet: 0.000000000 seconds" size="0" pos="0" show="0.000000000"/>
    <field name="frame.time_epoch" showname="Epoch Time: 1436246951.548360000 seconds" size="0" pos="0" show="1436246951.548360000"/>
    <field name="frame.time_delta" showname="Time delta from previous captured frame: 0.000200000 seconds" size="0" pos="0" show="0.000200000"/>
    <field name="frame.time_delta_displayed" showname="Time delta from previous displayed frame: 0.000200000 seconds" size="0" pos="0" show="0.000200000"/>
    <field name="frame.time_relative" showname="Time since reference or first frame: 0.974125000 seconds" size="0" pos="0" show="0.974125000"/>
    <field name="frame.number" showname="Frame Number: 8" size="0" pos="0" show="8"/>
    <field name="frame.len" showname="Frame Length: 1274 bytes (10192 bits)" size="0" pos="0" show="1274"/>
    <field name="frame.cap_len" showname="Capture Length: 1274 bytes (10192 bits)" size="0" pos="0" show="1274"/>
    <field name="frame.marked" showname="Frame is marked: False" size="0" pos="0" show="0"/>
    <field name="frame.ignored" showname="Frame is ignored: False" size="0" pos="0" show="0"/>
    <field name="frame.protocols" showname="Protocols in frame: raw:ip:tcp:http:media" size="0" pos="0" show="raw:ip:tcp:http:media"/>
  </proto>
  <proto name="raw" showname="Raw packet data" size="1274" pos="0"/>
  <proto name="ip" showname="Internet Protocol Version 4, Src: 211.144.94.46, Dst: 0.0.0.0" size="20" pos="0">
    <field name="ip.version" showname="0100 .... = Version: 4" size="1" pos="0" show="4" value="4" unmaskedvalue="45"/>
    <field name="ip.hdr_len" showname=".... 0101 = Header Length: 20 bytes (5)" size="1" pos="0" show="20" value="45"/>
    <field name="ip.dsfield" showname="Differentiated Services Field: 0x80 (DSCP: CS4, ECN: Not-ECT)" size="1" pos="1" show="0x00000080" value="80">
      <field name="ip.dsfield.dscp" showname="1000 00.. = Differentiated Services Codepoint: Class Selector 4 (32)" size="1" pos="1" show="32" value="20" unmaskedvalue="80"/>
      <field name="ip.dsfield.ecn" showname=".... ..00 = Explicit Congestion Notification: Not ECN-Capable Transport (0)" size="1" pos="1" show="0" value="0" unmaskedvalue="80"/>
    </field>
    <field name="ip.len" showname="Total Length: 1274" size="2" pos="2" show="1274" value="04fa"/>
    <field name="ip.id" showname="Identification: 0x51fa (20986)" size="2" pos="4" show="0x000051fa" value="51fa"/>
    <field name="ip.flags" showname="Flags: 0x02 (Don&#x27;t Fragment)" size="1" pos="6" show="0x00000002" value="40">
      <field name="ip.flags.rb" showname="0... .... = Reserved bit: Not set" size="1" pos="6" show="0" value="40"/>
      <field name="ip.flags.df" showname=".1.. .... = Don&#x27;t fragment: Set" size="1" pos="6" show="1" value="40"/>
      <field name="ip.flags.mf" showname="..0. .... = More fragments: Not set" size="1" pos="6" show="0" value="40"/>
    </field>
    <field name="ip.frag_offset" showname="Fragment offset: 0" size="2" pos="6" show="0" value="4000"/>
    <field name="ip.ttl" showname="Time to live: 38" size="1" pos="8" show="38" value="26"/>
    <field name="ip.proto" showname="Protocol: TCP (6)" size="1" pos="9" show="6" value="06"/>
    <field name="ip.checksum" showname="Header checksum: 0x0000 [validation disabled]" size="2" pos="10" show="0x00000000" value="0000"/>
    <field name="ip.checksum.status" showname="Header checksum status: Unverified" size="0" pos="10" show="2"/>
    <field name="ip.src" showname="Source: 211.144.94.46" size="4" pos="12" show="211.144.94.46" value="d3905e2e"/>
    <field name="ip.addr" showname="Source or Destination Address: 211.144.94.46" hide="yes" size="4" pos="12" show="211.144.94.46" value="d3905e2e"/>
    <field name="ip.src_host" showname="Source Host: 211.144.94.46" hide="yes" size="4" pos="12" show="211.144.94.46" value="d3905e2e"/>
    <field name="ip.host" showname="Source or Destination Host: 211.144.94.46" hide="yes" size="4" pos="12" show="211.144.94.46" value="d3905e2e"/>
    <field name="ip.dst" showname="Destination: 0.0.0.0" size="4" pos="16" show="0.0.0.0" value="00000000"/>
    <field name="ip.addr" showname="Source or Destination Address: 0.0.0.0" hide="yes" size="4" pos="16" show="0.0.0.0" value="00000000"/>
    <field name="ip.dst_host" showname="Destination Host: 0.0.0.0" hide="yes" size="4" pos="16" show="0.0.0.0" value="00000000"/>
    <field name="ip.host" showname="Source or Destination Host: 0.0.0.0" hide="yes" size="4" pos="16" show="0.0.0.0" value="00000000"/>
    <field name="" show="Source GeoIP: Unknown" size="4" pos="12" value="d3905e2e"/>
    <field name="" show="Destination GeoIP: Unknown" size="4" pos="16" value="00000000"/>
  </proto>
  <proto name="tcp" showname="Transmission Control Protocol, Src Port: 80, Dst Port: 61023, Seq: 1, Ack: 376, Len: 1222" size="32" pos="20">
    <field name="tcp.srcport" showname="Source Port: 80" size="2" pos="20" show="80" value="0050"/>
    <field name="tcp.dstport" showname="Destination Port: 61023" size="2" pos="22" show="61023" value="ee5f"/>
    <field name="tcp.port" showname="Source or Destination Port: 80" hide="yes" size="2" pos="20" show="80" value="0050"/>
    <field name="tcp.port" showname="Source or Destination Port: 61023" hide="yes" size="2" pos="22" show="61023" value="ee5f"/>
    <field name="tcp.stream" showname="Stream index: 0" size="0" pos="20" show="0"/>
    <field name="tcp.len" showname="TCP Segment Len: 1222" size="1" pos="32" show="1222" value="80"/>
    <field name="tcp.seq" showname="Sequence number: 1    (relative sequence number)" size="4" pos="24" show="1" value="c7ebfe83"/>
    <field name="tcp.nxtseq" showname="Next sequence number: 1223    (relative sequence number)" size="0" pos="20" show="1223"/>
    <field name="tcp.ack" showname="Acknowledgment number: 376    (relative ack number)" size="4" pos="28" show="376" value="efa682d6"/>
    <field name="tcp.hdr_len" showname="Header Length: 32 bytes" size="1" pos="32" show="32" value="80"/>
    <field name="tcp.flags" showname="Flags: 0x018 (PSH, ACK)" size="2" pos="32" show="0x00000018" value="18" unmaskedvalue="8018">
      <field name="tcp.flags.res" showname="000. .... .... = Reserved: Not set" size="1" pos="32" show="0" value="0" unmaskedvalue="80"/>
      <field name="tcp.flags.ns" showname="...0 .... .... = Nonce: Not set" size="1" pos="32" show="0" value="0" unmaskedvalue="80"/>
      <field name="tcp.flags.cwr" showname=".... 0... .... = Congestion Window Reduced (CWR): Not set" size="1" pos="33" show="0" value="0" unmaskedvalue="18"/>
      <field name="tcp.flags.ecn" showname=".... .0.. .... = ECN-Echo: Not set" size="1" pos="33" show="0" value="0" unmaskedvalue="18"/>
      <field name="tcp.flags.urg" showname=".... ..0. .... = Urgent: Not set" size="1" pos="33" show="0" value="0" unmaskedvalue="18"/>
      <field name="tcp.flags.ack" showname=".... ...1 .... = Acknowledgment: Set" size="1" pos="33" show="1" value="1" unmaskedvalue="18"/>
      <field name="tcp.flags.push" showname=".... .... 1... = Push: Set" size="1" pos="33" show="1" value="1" unmaskedvalue="18"/>
      <field name="tcp.flags.reset" showname=".... .... .0.. = Reset: Not set" size="1" pos="33" show="0" value="0" unmaskedvalue="18"/>
      <field name="tcp.flags.syn" showname=".... .... ..0. = Syn: Not set" size="1" pos="33" show="0" value="0" unmaskedvalue="18"/>
      <field name="tcp.flags.fin" showname=".... .... ...0 = Fin: Not set" size="1" pos="33" show="0" value="0" unmaskedvalue="18"/>
      <field name="tcp.flags.str" showname="TCP Flags: \xc2\xb7\xc2\xb7\xc2\xb7\xc2\xb7\xc2\xb7\xc2\xb7\xc2\xb7AP\xc2\xb7\xc2\xb7\xc2\xb7" size="2" pos="32" show="\xc2\xb7\xc2\xb7\xc2\xb7\xc2\xb7\xc2\xb7\xc2\xb7\xc2\xb7AP\xc2\xb7\xc2\xb7\xc2\xb7" value="8018"/>
    </field>
    <field name="tcp.window_size_value" showname="Window size value: 31" size="2" pos="34" show="31" value="001f"/>
    <field name="tcp.window_size" showname="Calculated window size: 15872" size="2" pos="34" show="15872" value="001f"/>
    <field name="tcp.window_size_scalefactor" showname="Window size scaling factor: 512" size="2" pos="34" show="512" value="001f"/>
    <field name="tcp.checksum" showname="Checksum: 0x0000 [unverified]" size="2" pos="36" show="0x00000000" value="0000"/>
    <field name="tcp.checksum.status" showname="Checksum Status: Unverified" size="0" pos="36" show="2"/>
    <field name="tcp.urgent_pointer" showname="Urgent pointer: 0" size="2" pos="38" show="0" value="0000"/>
    <field name="tcp.options" showname="Options: (12 bytes), No-Operation (NOP), No-Operation (NOP), Timestamps" size="12" pos="40" show="01:01:08:0a:eb:6e:af:7b:20:c0:84:34" value="0101080aeb6eaf7b20c08434">
      <field name="" show="No-Operation (NOP)" size="1" pos="40" value="01">
        <field name="tcp.options.type" showname="Type: 1" size="1" pos="40" show="1" value="01">
          <field name="tcp.options.type.copy" showname="0... .... = Copy on fragmentation: No" size="1" pos="40" show="0" value="0" unmaskedvalue="01"/>
          <field name="tcp.options.type.class" showname=".00. .... = Class: Control (0)" size="1" pos="40" show="0" value="0" unmaskedvalue="01"/>
          <field name="tcp.options.type.number" showname="...0 0001 = Number: No-Operation (NOP) (1)" size="1" pos="40" show="1" value="1" unmaskedvalue="01"/>
        </field>
      </field>
      <field name="" show="No-Operation (NOP)" size="1" pos="41" value="01">
        <field name="tcp.options.type" showname="Type: 1" size="1" pos="41" show="1" value="01">
          <field name="tcp.options.type.copy" showname="0... .... = Copy on fragmentation: No" size="1" pos="41" show="0" value="0" unmaskedvalue="01"/>
          <field name="tcp.options.type.class" showname=".00. .... = Class: Control (0)" size="1" pos="41" show="0" value="0" unmaskedvalue="01"/>
          <field name="tcp.options.type.number" showname="...0 0001 = Number: No-Operation (NOP) (1)" size="1" pos="41" show="1" value="1" unmaskedvalue="01"/>
        </field>
      </field>
      <field name="" show="Timestamps: TSval 3949899643, TSecr 549487668" size="10" pos="42" value="080aeb6eaf7b20c08434">
        <field name="tcp.option_kind" showname="Kind: Time Stamp Option (8)" size="1" pos="42" show="8" value="08"/>
        <field name="tcp.option_len" showname="Length: 10" size="1" pos="43" show="10" value="0a"/>
        <field name="tcp.options.timestamp.tsval" showname="Timestamp value: 3949899643" size="4" pos="44" show="3949899643" value="eb6eaf7b"/>
        <field name="tcp.options.timestamp.tsecr" showname="Timestamp echo reply: 549487668" size="4" pos="48" show="549487668" value="20c08434"/>
      </field>
    </field>
    <field name="tcp.analysis" showname="SEQ/ACK analysis" size="0" pos="20" show="" value="">
      <field name="tcp.analysis.initial_rtt" showname="iRTT: 0.486390000 seconds" size="0" pos="20" show="0.486390000"/>
      <field name="tcp.analysis.bytes_in_flight" showname="Bytes in flight: 1222" size="0" pos="20" show="1222"/>
      <field name="tcp.analysis.push_bytes_sent" showname="Bytes sent since last PSH flag: 1222" size="0" pos="20" show="1222"/>
    </field>
  </proto>
  <proto name="http" showname="Hypertext Transfer Protocol" size="1222" pos="52">
    <field name="" show="HTTP/1.1 200 OK\r\n" size="17" pos="52" value="485454502f312e3120323030204f4b0d0a">
      <field name="_ws.expert" showname="Expert Info (Chat/Sequence): HTTP/1.1 200 OK\r\n" size="0" pos="52">
        <field name="http.chat" showname="HTTP/1.1 200 OK\r\n" size="0" pos="0" show="" value=""/>
        <field name="_ws.expert.message" showname="Message: HTTP/1.1 200 OK\r\n" hide="yes" size="0" pos="0" show="HTTP/1.1 200 OK\r\n"/>
        <field name="_ws.expert.severity" showname="Severity level: Chat" size="0" pos="0" show="2097152"/>
        <field name="_ws.expert.group" showname="Group: Sequence" size="0" pos="0" show="33554432"/>
      </field>
      <field name="http.request.version" showname="Request Version: HTTP/1.1" size="8" pos="52" show="HTTP/1.1" value="485454502f312e31"/>
      <field name="http.response.code" showname="Status Code: 200" size="3" pos="61" show="200" value="323030"/>
      <field name="http.response.phrase" showname="Response Phrase: OK" size="2" pos="65" show="OK" value="4f4b"/>
    </field>
    <field name="http.server" showname="Server: Tengine\r\n" size="17" pos="69" show="Tengine" value="5365727665723a2054656e67696e650d0a"/>
    <field name="http.response.line" showname="Server: Tengine\r\n" hide="yes" size="17" pos="69" show="Server: Tengine\xd\xa" value="5365727665723a2054656e67696e650d0a"/>
    <field name="http.content_type" showname="Content-Type: application/javascript\r\n" size="38" pos="86" show="application/javascript" value="436f6e74656e742d547970653a206170706c69636174696f6e2f6a6176617363726970740d0a"/>
    <field name="http.response.line" showname="Content-Type: application/javascript\r\n" hide="yes" size="38" pos="86" show="Content-Type: application/javascript\xd\xa" value="436f6e74656e742d547970653a206170706c69636174696f6e2f6a6176617363726970740d0a"/>
    <field name="http.content_length_header" showname="Content-Length: 763\r\n" size="21" pos="124" show="763" value="436f6e74656e742d4c656e6774683a203736330d0a">
      <field name="http.content_length" showname="Content length: 763" size="21" pos="124" show="763" value="436f6e74656e742d4c656e6774683a203736330d0a"/>
    </field>
    <field name="http.response.line" showname="Content-Length: 763\r\n" hide="yes" size="21" pos="124" show="Content-Length: 763\xd\xa" value="436f6e74656e742d4c656e6774683a203736330d0a"/>
    <field name="http.connection" showname="Connection: keep-alive\r\n" size="24" pos="145" show="keep-alive" value="436f6e6e656374696f6e3a206b6565702d616c6976650d0a"/>
    <field name="http.response.line" showname="Connection: keep-alive\r\n" hide="yes" size="24" pos="145" show="Connection: keep-alive\xd\xa" value="436f6e6e656374696f6e3a206b6565702d616c6976650d0a"/>
    <field name="http.date" showname="Date: Tue, 07 Jul 2015 05:21:00 GMT\r\n" size="37" pos="169" show="Tue, 07 Jul 2015 05:21:00 GMT" value="446174653a205475652c203037204a756c20323031352030353a32313a303020474d540d0a"/>
    <field name="http.response.line" showname="Date: Tue, 07 Jul 2015 05:21:00 GMT\r\n" hide="yes" size="37" pos="169" show="Date: Tue, 07 Jul 2015 05:21:00 GMT\xd\xa" value="446174653a205475652c203037204a756c20323031352030353a32313a303020474d540d0a"/>
    <field name="http.last_modified" showname="Last-Modified: Tue, 07 Jul 2015 05:21:00 GMT\r\n" size="46" pos="206" show="Tue, 07 Jul 2015 05:21:00 GMT" value="4c6173742d4d6f6469666965643a205475652c203037204a756c20323031352030353a32313a303020474d540d0a"/>
    <field name="http.response.line" showname="Last-Modified: Tue, 07 Jul 2015 05:21:00 GMT\r\n" hide="yes" size="46" pos="206" show="Last-Modified: Tue, 07 Jul 2015 05:21:00 GMT\xd\xa" value="4c6173742d4d6f6469666965643a205475652c203037204a756c20323031352030353a32313a303020474d540d0a"/>
    <field name="http.response.line" showname="Expires: Tue, 07 Jul 2015 05:36:00 GMT\r\n" size="40" pos="252" show="Expires: Tue, 07 Jul 2015 05:36:00 GMT\xd\xa" value="457870697265733a205475652c203037204a756c20323031352030353a33363a303020474d540d0a"/>
    <field name="http.response.line" showname="Via: cache30.l2cn46[0,200-0,H], cache14.l2cn46[0,0], cache1.cn294[0,200-0,H], cache8.cn294[1,0]\r\n" size="97" pos="292" show="Via: cache30.l2cn46[0,200-0,H], cache14.l2cn46[0,0], cache1.cn294[0,200-0,H], cache8.cn294[1,0]\xd\xa" value="5669613a20636163686533302e6c32636e34365b302c3230302d302c485d2c20636163686531342e6c32636e34365b302c305d2c206361636865312e636e3239345b302c3230302d302c485d2c206361636865382e636e3239345b312c305d0d0a"/>
    <field name="http.response.line" showname="Age: 491\r\n" size="10" pos="389" show="Age: 491\xd\xa" value="4167653a203439310d0a"/>
    <field name="http.response.line" showname="X-Cache: HIT TCP_MEM_HIT dirn:-2:-2\r\n" size="37" pos="399" show="X-Cache: HIT TCP_MEM_HIT dirn:-2:-2\xd\xa" value="582d43616368653a20484954205443505f4d454d5f484954206469726e3a2d323a2d320d0a"/>
    <field name="http.response.line" showname="X-Swift-SaveTime: Tue, 07 Jul 2015 05:21:40 GMT\r\n" size="49" pos="436" show="X-Swift-SaveTime: Tue, 07 Jul 2015 05:21:40 GMT\xd\xa" value="582d53776966742d5361766554696d653a205475652c203037204a756c20323031352030353a32313a343020474d540d0a"/>
    <field name="http.response.line" showname="X-Swift-CacheTime: 860\r\n" size="24" pos="485" show="X-Swift-CacheTime: 860\xd\xa" value="582d53776966742d436163686554696d653a203836300d0a"/>
    <field name="" show="\r\n" size="2" pos="509" value="0d0a"/>
    <field name="http.response" showname="Response: True" hide="yes" size="0" pos="52" show="1"/>
    <field name="http.response_number" showname="HTTP response 1/1" size="0" pos="52" show="1"/>
    <field name="http.time" showname="Time since request: 0.487300000 seconds" size="0" pos="52" show="0.487300000"/>
    <field name="http.request_in" showname="Request in frame: 4" size="0" pos="52" show="4"/>
    <field name="http.file_data" showname="File Data: 763 bytes" size="763" pos="511" show="!function(){var p,q,r,a=encodeURIComponent,b=&quot;1253959227&quot;,c=&quot;&quot;,d=&quot;&quot;,e=&quot;online_v3.php&quot;,f=&quot;z4.cnzz.com&quot;,g=&quot;1&quot;,h=&quot;text&quot;,i=&quot;z&quot;,j=&quot;&amp;#31449;&amp;#38271;&amp;#32479;&amp;#35745;&quot;,k=window[&quot;_CNZZDbridge_&quot;+b][&quot;bobject&quot;],l=&quot;http:&quot;,m=&quot;1&quot;,n=l+&quot;//online.cnzz.com/online/&quot;+e,o=[];o.push(&quot;id=&quot;+b),o.push(&quot;h=&quot;+f),o.push(&quot;on=&quot;+a(d)),o.push(&quot;s=&quot;+a(c)),n+=&quot;?&quot;+o.join(&quot;&amp;&quot;),&quot;0&quot;===m&amp;&amp;k[&quot;callRequest&quot;]([l+&quot;//cnzz.mmstat.com/9.gif?abc=1&quot;]),g&amp;&amp;(&quot;&quot;!==d?k[&quot;createScriptIcon&quot;](n,&quot;utf-8&quot;):(q=&quot;z&quot;==i?&quot;http://www.cnzz.com/stat/website.php?web_id=&quot;+b:&quot;http://quanjing.cnzz.com&quot;,&quot;pic&quot;===h?(r=l+&quot;//icon.cnzz.com/img/&quot;+c+&quot;.gif&quot;,p=&quot;&lt;a href=&#x27;&quot;+q+&quot;&#x27; target=_blank title=&#x27;&quot;+j+&quot;&#x27;&gt;&lt;img border=0 hspace=0 vspace=0 src=&#x27;&quot;+r+&quot;&#x27;&gt;&lt;/a&gt;&quot;):p=&quot;&lt;a href=&#x27;&quot;+q+&quot;&#x27; target=_blank title=&#x27;&quot;+j+&quot;&#x27;&gt;&quot;+j+&quot;&lt;/a&gt;&quot;,k[&quot;createIcon&quot;]([p])))}();" value="2166756e6374696f6e28297b76617220702c712c722c613d656e636f6465555249436f6d706f6e656e742c623d2231323533393539323237222c633d22222c643d22222c653d226f6e6c696e655f76332e706870222c663d227a342e636e7a7a2e636f6d222c673d2231222c683d2274657874222c693d227a222c6a3d22262333313434393b262333383237313b262333323437393b262333353734353b222c6b3d77696e646f775b225f434e5a5a446272696467655f222b625d5b22626f626a656374225d2c6c3d22687474703a222c6d3d2231222c6e3d6c2b222f2f6f6e6c696e652e636e7a7a2e636f6d2f6f6e6c696e652f222b652c6f3d5b5d3b6f2e70757368282269643d222b62292c6f2e707573682822683d222b66292c6f2e7075736828226f6e3d222b61286429292c6f2e707573682822733d222b61286329292c6e2b3d223f222b6f2e6a6f696e28222622292c2230223d3d3d6d26266b5b2263616c6c52657175657374225d285b6c2b222f2f636e7a7a2e6d6d737461742e636f6d2f392e6769663f6162633d31225d292c672626282222213d3d643f6b5b2263726561746553637269707449636f6e225d286e2c227574662d3822293a28713d227a223d3d693f22687474703a2f2f7777772e636e7a7a2e636f6d2f737461742f776562736974652e7068703f7765625f69643d222b623a22687474703a2f2f7175616e6a696e672e636e7a7a2e636f6d222c22706963223d3d3d683f28723d6c2b222f2f69636f6e2e636e7a7a2e636f6d2f696d672f222b632b222e676966222c703d223c6120687265663d27222b712b2227207461726765743d5f626c616e6b207469746c653d27222b6a2b22273e3c696d6720626f726465723d30206873706163653d30207673706163653d30207372633d27222b722b22273e3c2f613e22293a703d223c6120687265663d27222b712b2227207461726765743d5f626c616e6b207469746c653d27222b6a2b22273e222b6a2b223c2f613e222c6b5b2263726561746549636f6e225d285b705d2929297d28293b"/>
  </proto>
  <proto name="media" showname="Media Type" size="763" pos="511">
    <field name="media.type" showname="Media type: application/javascript (763 bytes)" size="763" pos="511" show="21:66:75:6e:63:74:69:6f:6e:28:29:7b:76:61:72:20:70:2c:71:2c:72:2c:61:3d:65:6e:63:6f:64:65:55:52:49:43:6f:6d:70:6f:6e:65:6e:74:2c:62:3d:22:31:32:35:33:39:35:39:32:32:37:22:2c:63:3d:22:22:2c:64:3d:22:22:2c:65:3d:22:6f:6e:6c:69:6e:65:5f:76:33:2e:70:68:70:22:2c:66:3d:22:7a:34:2e:63:6e:7a:7a:2e:63:6f:6d:22:2c:67:3d:22:31:22:2c:68:3d:22:74:65:78:74:22:2c:69:3d:22:7a:22:2c:6a:3d:22:26:23:33:31:34:34:39:3b:26:23:33:38:32:37:31:3b:26:23:33:32:34:37:39:3b:26:23:33:35:37:34:35:3b:22:2c:6b:3d:77:69:6e:64:6f:77:5b:22:5f:43:4e:5a:5a:44:62:72:69:64:67:65:5f:22:2b:62:5d:5b:22:62:6f:62:6a:65:63:74:22:5d:2c:6c:3d:22:68:74:74:70:3a:22:2c:6d:3d:22:31:22:2c:6e:3d:6c:2b:22:2f:2f:6f:6e:6c:69:6e:65:2e:63:6e:7a:7a:2e:63:6f:6d:2f:6f:6e:6c:69:6e:65:2f:22:2b:65:2c:6f:3d:5b:5d:3b:6f:2e:70:75:73:68:28:22:69:64:3d:22:2b:62:29:2c:6f:2e:70:75:73:68:28:22:68:3d:22:2b:66:29:2c:6f:2e:70:75:73:68:28:22:6f:6e:3d:22:2b:61:28:64:29:29:2c:6f:2e:70:75:73:68:28:22:73:3d:22:2b:61:28:63:29:29:2c:6e:2b:3d:22:3f:22:2b:6f:2e:6a:6f:69:6e:28:22:26:22:29:2c:22:30:22:3d:3d:3d:6d:26:26:6b:5b:22:63:61:6c:6c:52:65:71:75:65:73:74:22:5d:28:5b:6c:2b:22:2f:2f:63:6e:7a:7a:2e:6d:6d:73:74:61:74:2e:63:6f:6d:2f:39:2e:67:69:66:3f:61:62:63:3d:31:22:5d:29:2c:67:26:26:28:22:22:21:3d:3d:64:3f:6b:5b:22:63:72:65:61:74:65:53:63:72:69:70:74:49:63:6f:6e:22:5d:28:6e:2c:22:75:74:66:2d:38:22:29:3a:28:71:3d:22:7a:22:3d:3d:69:3f:22:68:74:74:70:3a:2f:2f:77:77:77:2e:63:6e:7a:7a:2e:63:6f:6d:2f:73:74:61:74:2f:77:65:62:73:69:74:65:2e:70:68:70:3f:77:65:62:5f:69:64:3d:22:2b:62:3a:22:68:74:74:70:3a:2f:2f:71:75:61:6e:6a:69:6e:67:2e:63:6e:7a:7a:2e:63:6f:6d:22:2c:22:70:69:63:22:3d:3d:3d:68:3f:28:72:3d:6c:2b:22:2f:2f:69:63:6f:6e:2e:63:6e:7a:7a:2e:63:6f:6d:2f:69:6d:67:2f:22:2b:63:2b:22:2e:67:69:66:22:2c:70:3d:22:3c:61:20:68:72:65:66:3d:27:22:2b:71:2b:22:27:20:74:61:72:67:65:74:3d:5f:62:6c:61:6e:6b:20:74:69:74:6c:65:3d:27:22:2b:6a:2b:22:27:3e:3c:69:6d:67:20:62:6f:72:64:65:72:3d:30:20:68:73:70:61:63:65:3d:30:20:76:73:70:61:63:65:3d:30:20:73:72:63:3d:27:22:2b:72:2b:22:27:3e:3c:2f:61:3e:22:29:3a:70:3d:22:3c:61:20:68:72:65:66:3d:27:22:2b:71:2b:22:27:20:74:61:72:67:65:74:3d:5f:62:6c:61:6e:6b:20:74:69:74:6c:65:3d:27:22:2b:6a:2b:22:27:3e:22:2b:6a:2b:22:3c:2f:61:3e:22:2c:6b:5b:22:63:72:65:61:74:65:49:63:6f:6e:22:5d:28:5b:70:5d:29:29:29:7d:28:29:3b" value="2166756e6374696f6e28297b76617220702c712c722c613d656e636f6465555249436f6d706f6e656e742c623d2231323533393539323237222c633d22222c643d22222c653d226f6e6c696e655f76332e706870222c663d227a342e636e7a7a2e636f6d222c673d2231222c683d2274657874222c693d227a222c6a3d22262333313434393b262333383237313b262333323437393b262333353734353b222c6b3d77696e646f775b225f434e5a5a446272696467655f222b625d5b22626f626a656374225d2c6c3d22687474703a222c6d3d2231222c6e3d6c2b222f2f6f6e6c696e652e636e7a7a2e636f6d2f6f6e6c696e652f222b652c6f3d5b5d3b6f2e70757368282269643d222b62292c6f2e707573682822683d222b66292c6f2e7075736828226f6e3d222b61286429292c6f2e707573682822733d222b61286329292c6e2b3d223f222b6f2e6a6f696e28222622292c2230223d3d3d6d26266b5b2263616c6c52657175657374225d285b6c2b222f2f636e7a7a2e6d6d737461742e636f6d2f392e6769663f6162633d31225d292c672626282222213d3d643f6b5b2263726561746553637269707449636f6e225d286e2c227574662d3822293a28713d227a223d3d693f22687474703a2f2f7777772e636e7a7a2e636f6d2f737461742f776562736974652e7068703f7765625f69643d222b623a22687474703a2f2f7175616e6a696e672e636e7a7a2e636f6d222c22706963223d3d3d683f28723d6c2b222f2f69636f6e2e636e7a7a2e636f6d2f696d672f222b632b222e676966222c703d223c6120687265663d27222b712b2227207461726765743d5f626c616e6b207469746c653d27222b6a2b22273e3c696d6720626f726465723d30206873706163653d30207673706163653d30207372633d27222b722b22273e3c2f613e22293a703d223c6120687265663d27222b712b2227207461726765743d5f626c616e6b207469746c653d27222b6a2b22273e222b6a2b223c2f613e222c6b5b2263726561746549636f6e225d285b705d2929297d28293b"/>
  </proto>
</packet>


<packet>
  <proto name="geninfo" pos="0" showname="General information" size="52">
    <field name="num" pos="0" show="9" showname="Number" value="9" size="52"/>
    <field name="len" pos="0" show="52" showname="Frame Length" value="34" size="52"/>
    <field name="caplen" pos="0" show="52" showname="Captured Length" value="34" size="52"/>
    <field name="timestamp" pos="0" show="Jul  6, 2015 23:29:11.550634000 MDT" showname="Captured Time" value="1436246951.550634000" size="52"/>
  </proto>
  <proto name="frame" showname="Frame 9: 52 bytes on wire (416 bits), 52 bytes captured (416 bits)" size="52" pos="0">
    <field name="frame.encap_type" showname="Encapsulation type: Raw IP (7)" size="0" pos="0" show="7"/>
    <field name="frame.time" showname="Arrival Time: Jul  6, 2015 23:29:11.550634000 MDT" size="0" pos="0" show="Jul  6, 2015 23:29:11.550634000 MDT"/>
    <field name="frame.offset_shift" showname="Time shift for this packet: 0.000000000 seconds" size="0" pos="0" show="0.000000000"/>
    <field name="frame.time_epoch" showname="Epoch Time: 1436246951.550634000 seconds" size="0" pos="0" show="1436246951.550634000"/>
    <field name="frame.time_delta" showname="Time delta from previous captured frame: 0.002274000 seconds" size="0" pos="0" show="0.002274000"/>
    <field name="frame.time_delta_displayed" showname="Time delta from previous displayed frame: 0.002274000 seconds" size="0" pos="0" show="0.002274000"/>
    <field name="frame.time_relative" showname="Time since reference or first frame: 0.976399000 seconds" size="0" pos="0" show="0.976399000"/>
    <field name="frame.number" showname="Frame Number: 9" size="0" pos="0" show="9"/>
    <field name="frame.len" showname="Frame Length: 52 bytes (416 bits)" size="0" pos="0" show="52"/>
    <field name="frame.cap_len" showname="Capture Length: 52 bytes (416 bits)" size="0" pos="0" show="52"/>
    <field name="frame.marked" showname="Frame is marked: False" size="0" pos="0" show="0"/>
    <field name="frame.ignored" showname="Frame is ignored: False" size="0" pos="0" show="0"/>
    <field name="frame.protocols" showname="Protocols in frame: raw:ip:tcp" size="0" pos="0" show="raw:ip:tcp"/>
  </proto>
  <proto name="raw" showname="Raw packet data" size="52" pos="0"/>
  <proto name="ip" showname="Internet Protocol Version 4, Src: 0.0.0.0, Dst: 211.144.94.46" size="20" pos="0">
    <field name="ip.version" showname="0100 .... = Version: 4" size="1" pos="0" show="4" value="4" unmaskedvalue="45"/>
    <field name="ip.hdr_len" showname=".... 0101 = Header Length: 20 bytes (5)" size="1" pos="0" show="20" value="45"/>
    <field name="ip.dsfield" showname="Differentiated Services Field: 0x00 (DSCP: CS0, ECN: Not-ECT)" size="1" pos="1" show="0x00000000" value="00">
      <field name="ip.dsfield.dscp" showname="0000 00.. = Differentiated Services Codepoint: Default (0)" size="1" pos="1" show="0" value="0" unmaskedvalue="00"/>
      <field name="ip.dsfield.ecn" showname=".... ..00 = Explicit Congestion Notification: Not ECN-Capable Transport (0)" size="1" pos="1" show="0" value="0" unmaskedvalue="00"/>
    </field>
    <field name="ip.len" showname="Total Length: 52" size="2" pos="2" show="52" value="0034"/>
    <field name="ip.id" showname="Identification: 0x4182 (16770)" size="2" pos="4" show="0x00004182" value="4182"/>
    <field name="ip.flags" showname="Flags: 0x02 (Don&#x27;t Fragment)" size="1" pos="6" show="0x00000002" value="40">
      <field name="ip.flags.rb" showname="0... .... = Reserved bit: Not set" size="1" pos="6" show="0" value="40"/>
      <field name="ip.flags.df" showname=".1.. .... = Don&#x27;t fragment: Set" size="1" pos="6" show="1" value="40"/>
      <field name="ip.flags.mf" showname="..0. .... = More fragments: Not set" size="1" pos="6" show="0" value="40"/>
    </field>
    <field name="ip.frag_offset" showname="Fragment offset: 0" size="2" pos="6" show="0" value="4000"/>
    <field name="ip.ttl" showname="Time to live: 60" size="1" pos="8" show="60" value="3c"/>
    <field name="ip.proto" showname="Protocol: TCP (6)" size="1" pos="9" show="6" value="06"/>
    <field name="ip.checksum" showname="Header checksum: 0x0000 [validation disabled]" size="2" pos="10" show="0x00000000" value="0000"/>
    <field name="ip.checksum.status" showname="Header checksum status: Unverified" size="0" pos="10" show="2"/>
    <field name="ip.src" showname="Source: 0.0.0.0" size="4" pos="12" show="0.0.0.0" value="00000000"/>
    <field name="ip.addr" showname="Source or Destination Address: 0.0.0.0" hide="yes" size="4" pos="12" show="0.0.0.0" value="00000000"/>
    <field name="ip.src_host" showname="Source Host: 0.0.0.0" hide="yes" size="4" pos="12" show="0.0.0.0" value="00000000"/>
    <field name="ip.host" showname="Source or Destination Host: 0.0.0.0" hide="yes" size="4" pos="12" show="0.0.0.0" value="00000000"/>
    <field name="ip.dst" showname="Destination: 211.144.94.46" size="4" pos="16" show="211.144.94.46" value="d3905e2e"/>
    <field name="ip.addr" showname="Source or Destination Address: 211.144.94.46" hide="yes" size="4" pos="16" show="211.144.94.46" value="d3905e2e"/>
    <field name="ip.dst_host" showname="Destination Host: 211.144.94.46" hide="yes" size="4" pos="16" show="211.144.94.46" value="d3905e2e"/>
    <field name="ip.host" showname="Source or Destination Host: 211.144.94.46" hide="yes" size="4" pos="16" show="211.144.94.46" value="d3905e2e"/>
    <field name="" show="Source GeoIP: Unknown" size="4" pos="12" value="00000000"/>
    <field name="" show="Destination GeoIP: Unknown" size="4" pos="16" value="d3905e2e"/>
  </proto>
  <proto name="tcp" showname="Transmission Control Protocol, Src Port: 61023, Dst Port: 80, Seq: 376, Ack: 1223, Len: 0" size="32" pos="20">
    <field name="tcp.srcport" showname="Source Port: 61023" size="2" pos="20" show="61023" value="ee5f"/>
    <field name="tcp.dstport" showname="Destination Port: 80" size="2" pos="22" show="80" value="0050"/>
    <field name="tcp.port" showname="Source or Destination Port: 61023" hide="yes" size="2" pos="20" show="61023" value="ee5f"/>
    <field name="tcp.port" showname="Source or Destination Port: 80" hide="yes" size="2" pos="22" show="80" value="0050"/>
    <field name="tcp.stream" showname="Stream index: 0" size="0" pos="20" show="0"/>
    <field name="tcp.len" showname="TCP Segment Len: 0" size="1" pos="32" show="0" value="80"/>
    <field name="tcp.seq" showname="Sequence number: 376    (relative sequence number)" size="4" pos="24" show="376" value="efa682d6"/>
    <field name="tcp.ack" showname="Acknowledgment number: 1223    (relative ack number)" size="4" pos="28" show="1223" value="c7ec0349"/>
    <field name="tcp.hdr_len" showname="Header Length: 32 bytes" size="1" pos="32" show="32" value="80"/>
    <field name="tcp.flags" showname="Flags: 0x010 (ACK)" size="2" pos="32" show="0x00000010" value="10" unmaskedvalue="8010">
      <field name="tcp.flags.res" showname="000. .... .... = Reserved: Not set" size="1" pos="32" show="0" value="0" unmaskedvalue="80"/>
      <field name="tcp.flags.ns" showname="...0 .... .... = Nonce: Not set" size="1" pos="32" show="0" value="0" unmaskedvalue="80"/>
      <field name="tcp.flags.cwr" showname=".... 0... .... = Congestion Window Reduced (CWR): Not set" size="1" pos="33" show="0" value="0" unmaskedvalue="10"/>
      <field name="tcp.flags.ecn" showname=".... .0.. .... = ECN-Echo: Not set" size="1" pos="33" show="0" value="0" unmaskedvalue="10"/>
      <field name="tcp.flags.urg" showname=".... ..0. .... = Urgent: Not set" size="1" pos="33" show="0" value="0" unmaskedvalue="10"/>
      <field name="tcp.flags.ack" showname=".... ...1 .... = Acknowledgment: Set" size="1" pos="33" show="1" value="1" unmaskedvalue="10"/>
      <field name="tcp.flags.push" showname=".... .... 0... = Push: Not set" size="1" pos="33" show="0" value="0" unmaskedvalue="10"/>
      <field name="tcp.flags.reset" showname=".... .... .0.. = Reset: Not set" size="1" pos="33" show="0" value="0" unmaskedvalue="10"/>
      <field name="tcp.flags.syn" showname=".... .... ..0. = Syn: Not set" size="1" pos="33" show="0" value="0" unmaskedvalue="10"/>
      <field name="tcp.flags.fin" showname=".... .... ...0 = Fin: Not set" size="1" pos="33" show="0" value="0" unmaskedvalue="10"/>
      <field name="tcp.flags.str" showname="TCP Flags: \xc2\xb7\xc2\xb7\xc2\xb7\xc2\xb7\xc2\xb7\xc2\xb7\xc2\xb7A\xc2\xb7\xc2\xb7\xc2\xb7\xc2\xb7" size="2" pos="32" show="\xc2\xb7\xc2\xb7\xc2\xb7\xc2\xb7\xc2\xb7\xc2\xb7\xc2\xb7A\xc2\xb7\xc2\xb7\xc2\xb7\xc2\xb7" value="8010"/>
    </field>
    <field name="tcp.window_size_value" showname="Window size value: 916" size="2" pos="34" show="916" value="0394"/>
    <field name="tcp.window_size" showname="Calculated window size: 7328" size="2" pos="34" show="7328" value="0394"/>
    <field name="tcp.window_size_scalefactor" showname="Window size scaling factor: 8" size="2" pos="34" show="8" value="0394"/>
    <field name="tcp.checksum" showname="Checksum: 0x0000 [unverified]" size="2" pos="36" show="0x00000000" value="0000"/>
    <field name="tcp.checksum.status" showname="Checksum Status: Unverified" size="0" pos="36" show="2"/>
    <field name="tcp.urgent_pointer" showname="Urgent pointer: 0" size="2" pos="38" show="0" value="0000"/>
    <field name="tcp.options" showname="Options: (12 bytes), No-Operation (NOP), No-Operation (NOP), Timestamps" size="12" pos="40" show="01:01:08:0a:20:c0:84:65:eb:6e:af:7b" value="0101080a20c08465eb6eaf7b">
      <field name="" show="No-Operation (NOP)" size="1" pos="40" value="01">
        <field name="tcp.options.type" showname="Type: 1" size="1" pos="40" show="1" value="01">
          <field name="tcp.options.type.copy" showname="0... .... = Copy on fragmentation: No" size="1" pos="40" show="0" value="0" unmaskedvalue="01"/>
          <field name="tcp.options.type.class" showname=".00. .... = Class: Control (0)" size="1" pos="40" show="0" value="0" unmaskedvalue="01"/>
          <field name="tcp.options.type.number" showname="...0 0001 = Number: No-Operation (NOP) (1)" size="1" pos="40" show="1" value="1" unmaskedvalue="01"/>
        </field>
      </field>
      <field name="" show="No-Operation (NOP)" size="1" pos="41" value="01">
        <field name="tcp.options.type" showname="Type: 1" size="1" pos="41" show="1" value="01">
          <field name="tcp.options.type.copy" showname="0... .... = Copy on fragmentation: No" size="1" pos="41" show="0" value="0" unmaskedvalue="01"/>
          <field name="tcp.options.type.class" showname=".00. .... = Class: Control (0)" size="1" pos="41" show="0" value="0" unmaskedvalue="01"/>
          <field name="tcp.options.type.number" showname="...0 0001 = Number: No-Operation (NOP) (1)" size="1" pos="41" show="1" value="1" unmaskedvalue="01"/>
        </field>
      </field>
      <field name="" show="Timestamps: TSval 549487717, TSecr 3949899643" size="10" pos="42" value="080a20c08465eb6eaf7b">
        <field name="tcp.option_kind" showname="Kind: Time Stamp Option (8)" size="1" pos="42" show="8" value="08"/>
        <field name="tcp.option_len" showname="Length: 10" size="1" pos="43" show="10" value="0a"/>
        <field name="tcp.options.timestamp.tsval" showname="Timestamp value: 549487717" size="4" pos="44" show="549487717" value="20c08465"/>
        <field name="tcp.options.timestamp.tsecr" showname="Timestamp echo reply: 3949899643" size="4" pos="48" show="3949899643" value="eb6eaf7b"/>
      </field>
    </field>
    <field name="tcp.analysis" showname="SEQ/ACK analysis" size="0" pos="20" show="" value="">
      <field name="tcp.analysis.acks_frame" showname="This is an ACK to the segment in frame: 8" size="0" pos="20" show="8"/>
      <field name="tcp.analysis.ack_rtt" showname="The RTT to ACK the segment was: 0.002274000 seconds" size="0" pos="20" show="0.002274000"/>
      <field name="tcp.analysis.initial_rtt" showname="iRTT: 0.486390000 seconds" size="0" pos="20" show="0.486390000"/>
    </field>
  </proto>
</packet>


<packet>
  <proto name="geninfo" pos="0" showname="General information" size="148">
    <field name="num" pos="0" show="10" showname="Number" value="a" size="148"/>
    <field name="len" pos="0" show="148" showname="Frame Length" value="94" size="148"/>
    <field name="caplen" pos="0" show="148" showname="Captured Length" value="94" size="148"/>
    <field name="timestamp" pos="0" show="Jul  6, 2015 23:29:11.552565000 MDT" showname="Captured Time" value="1436246951.552565000" size="148"/>
  </proto>
  <proto name="frame" showname="Frame 10: 148 bytes on wire (1184 bits), 148 bytes captured (1184 bits)" size="148" pos="0">
    <field name="frame.encap_type" showname="Encapsulation type: Raw IP (7)" size="0" pos="0" show="7"/>
    <field name="frame.time" showname="Arrival Time: Jul  6, 2015 23:29:11.552565000 MDT" size="0" pos="0" show="Jul  6, 2015 23:29:11.552565000 MDT"/>
    <field name="frame.offset_shift" showname="Time shift for this packet: 0.000000000 seconds" size="0" pos="0" show="0.000000000"/>
    <field name="frame.time_epoch" showname="Epoch Time: 1436246951.552565000 seconds" size="0" pos="0" show="1436246951.552565000"/>
    <field name="frame.time_delta" showname="Time delta from previous captured frame: 0.001931000 seconds" size="0" pos="0" show="0.001931000"/>
    <field name="frame.time_delta_displayed" showname="Time delta from previous displayed frame: 0.001931000 seconds" size="0" pos="0" show="0.001931000"/>
    <field name="frame.time_relative" showname="Time since reference or first frame: 0.978330000 seconds" size="0" pos="0" show="0.978330000"/>
    <field name="frame.number" showname="Frame Number: 10" size="0" pos="0" show="10"/>
    <field name="frame.len" showname="Frame Length: 148 bytes (1184 bits)" size="0" pos="0" show="148"/>
    <field name="frame.cap_len" showname="Capture Length: 148 bytes (1184 bits)" size="0" pos="0" show="148"/>
    <field name="frame.marked" showname="Frame is marked: False" size="0" pos="0" show="0"/>
    <field name="frame.ignored" showname="Frame is ignored: False" size="0" pos="0" show="0"/>
    <field name="frame.protocols" showname="Protocols in frame: raw:ip:tcp" size="0" pos="0" show="raw:ip:tcp"/>
  </proto>
  <proto name="raw" showname="Raw packet data" size="148" pos="0"/>
  <proto name="ip" showname="Internet Protocol Version 4, Src: 211.144.94.46, Dst: 0.0.0.0" size="20" pos="0">
    <field name="ip.version" showname="0100 .... = Version: 4" size="1" pos="0" show="4" value="4" unmaskedvalue="45"/>
    <field name="ip.hdr_len" showname=".... 0101 = Header Length: 20 bytes (5)" size="1" pos="0" show="20" value="45"/>
    <field name="ip.dsfield" showname="Differentiated Services Field: 0x80 (DSCP: CS4, ECN: Not-ECT)" size="1" pos="1" show="0x00000080" value="80">
      <field name="ip.dsfield.dscp" showname="1000 00.. = Differentiated Services Codepoint: Class Selector 4 (32)" size="1" pos="1" show="32" value="20" unmaskedvalue="80"/>
      <field name="ip.dsfield.ecn" showname=".... ..00 = Explicit Congestion Notification: Not ECN-Capable Transport (0)" size="1" pos="1" show="0" value="0" unmaskedvalue="80"/>
    </field>
    <field name="ip.len" showname="Total Length: 148" size="2" pos="2" show="148" value="0094"/>
    <field name="ip.id" showname="Identification: 0x8041 (32833)" size="2" pos="4" show="0x00008041" value="8041"/>
    <field name="ip.flags" showname="Flags: 0x00" size="1" pos="6" show="0x00000000" value="00">
      <field name="ip.flags.rb" showname="0... .... = Reserved bit: Not set" size="1" pos="6" show="0" value="00"/>
      <field name="ip.flags.df" showname=".0.. .... = Don&#x27;t fragment: Not set" size="1" pos="6" show="0" value="00"/>
      <field name="ip.flags.mf" showname="..0. .... = More fragments: Not set" size="1" pos="6" show="0" value="00"/>
    </field>
    <field name="ip.frag_offset" showname="Fragment offset: 0" size="2" pos="6" show="0" value="0000"/>
    <field name="ip.ttl" showname="Time to live: 8" size="1" pos="8" show="8" value="08"/>
    <field name="ip.proto" showname="Protocol: TCP (6)" size="1" pos="9" show="6" value="06"/>
    <field name="ip.checksum" showname="Header checksum: 0x0000 [validation disabled]" size="2" pos="10" show="0x00000000" value="0000"/>
    <field name="ip.checksum.status" showname="Header checksum status: Unverified" size="0" pos="10" show="2"/>
    <field name="ip.src" showname="Source: 211.144.94.46" size="4" pos="12" show="211.144.94.46" value="d3905e2e"/>
    <field name="ip.addr" showname="Source or Destination Address: 211.144.94.46" hide="yes" size="4" pos="12" show="211.144.94.46" value="d3905e2e"/>
    <field name="ip.src_host" showname="Source Host: 211.144.94.46" hide="yes" size="4" pos="12" show="211.144.94.46" value="d3905e2e"/>
    <field name="ip.host" showname="Source or Destination Host: 211.144.94.46" hide="yes" size="4" pos="12" show="211.144.94.46" value="d3905e2e"/>
    <field name="ip.dst" showname="Destination: 0.0.0.0" size="4" pos="16" show="0.0.0.0" value="00000000"/>
    <field name="ip.addr" showname="Source or Destination Address: 0.0.0.0" hide="yes" size="4" pos="16" show="0.0.0.0" value="00000000"/>
    <field name="ip.dst_host" showname="Destination Host: 0.0.0.0" hide="yes" size="4" pos="16" show="0.0.0.0" value="00000000"/>
    <field name="ip.host" showname="Source or Destination Host: 0.0.0.0" hide="yes" size="4" pos="16" show="0.0.0.0" value="00000000"/>
    <field name="" show="Source GeoIP: Unknown" size="4" pos="12" value="d3905e2e"/>
    <field name="" show="Destination GeoIP: Unknown" size="4" pos="16" value="00000000"/>
  </proto>
  <proto name="tcp" showname="Transmission Control Protocol, Src Port: 80, Dst Port: 61023, Seq: 1, Ack: 1, Len: 108" size="20" pos="20">
    <field name="tcp.srcport" showname="Source Port: 80" size="2" pos="20" show="80" value="0050"/>
    <field name="tcp.dstport" showname="Destination Port: 61023" size="2" pos="22" show="61023" value="ee5f"/>
    <field name="tcp.port" showname="Source or Destination Port: 80" hide="yes" size="2" pos="20" show="80" value="0050"/>
    <field name="tcp.port" showname="Source or Destination Port: 61023" hide="yes" size="2" pos="22" show="61023" value="ee5f"/>
    <field name="tcp.stream" showname="Stream index: 0" size="0" pos="20" show="0"/>
    <field name="tcp.len" showname="TCP Segment Len: 108" size="1" pos="32" show="108" value="50"/>
    <field name="tcp.seq" showname="Sequence number: 1    (relative sequence number)" size="4" pos="24" show="1" value="c7ebfe83"/>
    <field name="tcp.nxtseq" showname="Next sequence number: 110    (relative sequence number)" size="0" pos="20" show="110"/>
    <field name="tcp.ack" showname="Acknowledgment number: 1    (relative ack number)" size="4" pos="28" show="1" value="efa6815f"/>
    <field name="tcp.hdr_len" showname="Header Length: 20 bytes" size="1" pos="32" show="20" value="50"/>
    <field name="tcp.flags" showname="Flags: 0x011 (FIN, ACK)" size="2" pos="32" show="0x00000011" value="11" unmaskedvalue="5011">
      <field name="tcp.flags.res" showname="000. .... .... = Reserved: Not set" size="1" pos="32" show="0" value="0" unmaskedvalue="50"/>
      <field name="tcp.flags.ns" showname="...0 .... .... = Nonce: Not set" size="1" pos="32" show="0" value="0" unmaskedvalue="50"/>
      <field name="tcp.flags.cwr" showname=".... 0... .... = Congestion Window Reduced (CWR): Not set" size="1" pos="33" show="0" value="0" unmaskedvalue="11"/>
      <field name="tcp.flags.ecn" showname=".... .0.. .... = ECN-Echo: Not set" size="1" pos="33" show="0" value="0" unmaskedvalue="11"/>
      <field name="tcp.flags.urg" showname=".... ..0. .... = Urgent: Not set" size="1" pos="33" show="0" value="0" unmaskedvalue="11"/>
      <field name="tcp.flags.ack" showname=".... ...1 .... = Acknowledgment: Set" size="1" pos="33" show="1" value="1" unmaskedvalue="11"/>
      <field name="tcp.flags.push" showname=".... .... 0... = Push: Not set" size="1" pos="33" show="0" value="0" unmaskedvalue="11"/>
      <field name="tcp.flags.reset" showname=".... .... .0.. = Reset: Not set" size="1" pos="33" show="0" value="0" unmaskedvalue="11"/>
      <field name="tcp.flags.syn" showname=".... .... ..0. = Syn: Not set" size="1" pos="33" show="0" value="0" unmaskedvalue="11"/>
      <field name="tcp.flags.fin" showname=".... .... ...1 = Fin: Set" size="1" pos="33" show="1" value="1" unmaskedvalue="11">
        <field name="_ws.expert" showname="Expert Info (Chat/Sequence): Connection finish (FIN)" size="0" pos="33">
          <field name="tcp.connection.fin" showname="Connection finish (FIN)" size="0" pos="0" show="" value=""/>
          <field name="_ws.expert.message" showname="Message: Connection finish (FIN)" hide="yes" size="0" pos="0" show="Connection finish (FIN)"/>
          <field name="_ws.expert.severity" showname="Severity level: Chat" size="0" pos="0" show="2097152"/>
          <field name="_ws.expert.group" showname="Group: Sequence" size="0" pos="0" show="33554432"/>
        </field>
      </field>
      <field name="tcp.flags.str" showname="TCP Flags: \xc2\xb7\xc2\xb7\xc2\xb7\xc2\xb7\xc2\xb7\xc2\xb7\xc2\xb7A\xc2\xb7\xc2\xb7\xc2\xb7F" size="2" pos="32" show="\xc2\xb7\xc2\xb7\xc2\xb7\xc2\xb7\xc2\xb7\xc2\xb7\xc2\xb7A\xc2\xb7\xc2\xb7\xc2\xb7F" value="5011"/>
    </field>
    <field name="tcp.window_size_value" showname="Window size value: 55810" size="2" pos="34" show="55810" value="da02"/>
    <field name="tcp.window_size" showname="Calculated window size: 28574720" size="2" pos="34" show="28574720" value="da02"/>
    <field name="tcp.window_size_scalefactor" showname="Window size scaling factor: 512" size="2" pos="34" show="512" value="da02"/>
    <field name="tcp.checksum" showname="Checksum: 0x0000 [unverified]" size="2" pos="36" show="0x00000000" value="0000"/>
    <field name="tcp.checksum.status" showname="Checksum Status: Unverified" size="0" pos="36" show="2"/>
    <field name="tcp.urgent_pointer" showname="Urgent pointer: 0" size="2" pos="38" show="0" value="0000"/>
    <field name="tcp.analysis" showname="SEQ/ACK analysis" size="0" pos="20" show="" value="">
      <field name="tcp.analysis.initial_rtt" showname="iRTT: 0.486390000 seconds" size="0" pos="20" show="0.486390000"/>
      <field name="tcp.analysis.bytes_in_flight" showname="Bytes in flight: 109" size="0" pos="20" show="109"/>
      <field name="tcp.analysis.push_bytes_sent" showname="Bytes sent since last PSH flag: 108" size="0" pos="20" show="108"/>
      <field name="tcp.analysis.flags" showname="TCP Analysis Flags" size="0" pos="20" show="" value="">
        <field name="_ws.expert" showname="Expert Info (Warning/Sequence): This frame is a (suspected) out-of-order segment" size="0" pos="20">
          <field name="tcp.analysis.out_of_order" showname="This frame is a (suspected) out-of-order segment" size="0" pos="0" show="" value=""/>
          <field name="_ws.expert.message" showname="Message: This frame is a (suspected) out-of-order segment" hide="yes" size="0" pos="0" show="This frame is a (suspected) out-of-order segment"/>
          <field name="_ws.expert.severity" showname="Severity level: Warning" size="0" pos="0" show="6291456"/>
          <field name="_ws.expert.group" showname="Group: Sequence" size="0" pos="0" show="33554432"/>
        </field>
      </field>
    </field>
  </proto>
</packet>


</pdml>
