<?xml version="1.0"?>
<?xml-stylesheet type="text/xsl" href="pdml2html.xsl"?>
<pdml version="0" creator="wireshark/2.2.6" time="Tue May 16 02:13:37 2017" capture_file="/Users/juanjmartinez/Desktop/legac_pfs/backend/code/juan/ProtocolFormatterSystem GUI/30.pcap">
<packet>
  <proto name="tcp" showname="Transmission Control Protocol, Src Port: 61023, Dst Port: 80, Seq: 0, Len: 0" size="40" pos="20">
    <field name="tcp.srcport" showname="Source Port: 61023" size="2" pos="20" show="61023" value="ee5f"/>
    <field name="tcp.dstport" showname="Destination Port: 80" size="2" pos="22" show="80" value="0050"/>
    <field name="tcp.port" showname="Source or Destination Port: 61023" hide="yes" size="2" pos="20" show="61023" value="ee5f"/>
    <field name="tcp.port" showname="Source or Destination Port: 80" hide="yes" size="2" pos="22" show="80" value="0050"/>
    <field name="tcp.stream" showname="Stream index: 0" size="0" pos="20" show="0"/>
    <field name="tcp.len" showname="TCP Segment Len: 0" size="1" pos="32" show="0" value="a0"/>
    <field name="tcp.seq" showname="Sequence number: 0    (relative sequence number)" size="4" pos="24" show="0" value="efa6815e"/>
    <field name="tcp.ack" showname="Acknowledgment number: 0" size="4" pos="28" show="0" value="00000000"/>
    <field name="tcp.hdr_len" showname="Header Length: 40 bytes" size="1" pos="32" show="40" value="a0"/>
    <field name="tcp.flags" showname="Flags: 0x002 (SYN)" size="2" pos="32" show="0x00000002" value="2" unmaskedvalue="a002">
      <field name="tcp.flags.res" showname="000. .... .... = Reserved: Not set" size="1" pos="32" show="0" value="0" unmaskedvalue="a0"/>
      <field name="tcp.flags.ns" showname="...0 .... .... = Nonce: Not set" size="1" pos="32" show="0" value="0" unmaskedvalue="a0"/>
      <field name="tcp.flags.cwr" showname=".... 0... .... = Congestion Window Reduced (CWR): Not set" size="1" pos="33" show="0" value="0" unmaskedvalue="02"/>
      <field name="tcp.flags.ecn" showname=".... .0.. .... = ECN-Echo: Not set" size="1" pos="33" show="0" value="0" unmaskedvalue="02"/>
      <field name="tcp.flags.urg" showname=".... ..0. .... = Urgent: Not set" size="1" pos="33" show="0" value="0" unmaskedvalue="02"/>
      <field name="tcp.flags.ack" showname=".... ...0 .... = Acknowledgment: Not set" size="1" pos="33" show="0" value="0" unmaskedvalue="02"/>
      <field name="tcp.flags.push" showname=".... .... 0... = Push: Not set" size="1" pos="33" show="0" value="0" unmaskedvalue="02"/>
      <field name="tcp.flags.reset" showname=".... .... .0.. = Reset: Not set" size="1" pos="33" show="0" value="0" unmaskedvalue="02"/>
      <field name="tcp.flags.syn" showname=".... .... ..1. = Syn: Set" size="1" pos="33" show="1" value="1" unmaskedvalue="02">
        <field name="_ws.expert" showname="Expert Info (Chat/Sequence): Connection establish request (SYN): server port 80" size="0" pos="33">
          <field name="tcp.connection.syn" showname="Connection establish request (SYN): server port 80" size="0" pos="0" show="" value=""/>
          <field name="_ws.expert.message" showname="Message: Connection establish request (SYN): server port 80" hide="yes" size="0" pos="0" show="Connection establish request (SYN): server port 80"/>
          <field name="_ws.expert.severity" showname="Severity level: Chat" size="0" pos="0" show="2097152"/>
          <field name="_ws.expert.group" showname="Group: Sequence" size="0" pos="0" show="33554432"/>
        </field>
      </field>
      <field name="tcp.flags.fin" showname=".... .... ...0 = Fin: Not set" size="1" pos="33" show="0" value="0" unmaskedvalue="02"/>
      <field name="tcp.flags.str" showname="TCP Flags: \xc2\xb7\xc2\xb7\xc2\xb7\xc2\xb7\xc2\xb7\xc2\xb7\xc2\xb7\xc2\xb7\xc2\xb7\xc2\xb7S\xc2\xb7" size="2" pos="32" show="\xc2\xb7\xc2\xb7\xc2\xb7\xc2\xb7\xc2\xb7\xc2\xb7\xc2\xb7\xc2\xb7\xc2\xb7\xc2\xb7S\xc2\xb7" value="a002"/>
    </field>
    <field name="tcp.window_size_value" showname="Window size value: 5840" size="2" pos="34" show="5840" value="16d0"/>
    <field name="tcp.window_size" showname="Calculated window size: 5840" size="2" pos="34" show="5840" value="16d0"/>
    <field name="tcp.checksum" showname="Checksum: 0x0000 [unverified]" size="2" pos="36" show="0x00000000" value="0000"/>
    <field name="tcp.checksum.status" showname="Checksum Status: Unverified" size="0" pos="36" show="2"/>
    <field name="tcp.urgent_pointer" showname="Urgent pointer: 0" size="2" pos="38" show="0" value="0000"/>
    <field name="tcp.options" showname="Options: (20 bytes), Maximum segment size, SACK permitted, Timestamps, No-Operation (NOP), Window scale" size="20" pos="40" show="02:04:05:b4:04:02:08:0a:20:c0:84:04:00:00:00:00:01:03:03:03" value="020405b40402080a20c084040000000001030303">
      <field name="tcp.options.mss" showname="Maximum segment size: 1460 bytes" size="4" pos="40" show="" value="">
        <field name="tcp.option_kind" showname="Kind: Maximum Segment Size (2)" size="1" pos="40" show="2" value="02"/>
        <field name="tcp.option_len" showname="Length: 4" size="1" pos="41" show="4" value="04"/>
        <field name="tcp.options.mss_val" showname="MSS Value: 1460" size="2" pos="42" show="1460" value="05b4"/>
      </field>
      <field name="tcp.options.sack_perm" showname="TCP SACK Permitted Option: True" size="2" pos="44" show="1" value="0402">
        <field name="tcp.option_kind" showname="Kind: SACK Permitted (4)" size="1" pos="44" show="4" value="04"/>
        <field name="tcp.option_len" showname="Length: 2" size="1" pos="45" show="2" value="02"/>
      </field>
      <field name="" show="Timestamps: TSval 549487620, TSecr 0" size="10" pos="46" value="080a20c0840400000000">
        <field name="tcp.option_kind" showname="Kind: Time Stamp Option (8)" size="1" pos="46" show="8" value="08"/>
        <field name="tcp.option_len" showname="Length: 10" size="1" pos="47" show="10" value="0a"/>
        <field name="tcp.options.timestamp.tsval" showname="Timestamp value: 549487620" size="4" pos="48" show="549487620" value="20c08404"/>
        <field name="tcp.options.timestamp.tsecr" showname="Timestamp echo reply: 0" size="4" pos="52" show="0" value="00000000"/>
      </field>
      <field name="" show="No-Operation (NOP)" size="1" pos="56" value="01">
        <field name="tcp.options.type" showname="Type: 1" size="1" pos="56" show="1" value="01">
          <field name="tcp.options.type.copy" showname="0... .... = Copy on fragmentation: No" size="1" pos="56" show="0" value="0" unmaskedvalue="01"/>
          <field name="tcp.options.type.class" showname=".00. .... = Class: Control (0)" size="1" pos="56" show="0" value="0" unmaskedvalue="01"/>
          <field name="tcp.options.type.number" showname="...0 0001 = Number: No-Operation (NOP) (1)" size="1" pos="56" show="1" value="1" unmaskedvalue="01"/>
        </field>
      </field>
      <field name="" show="Window scale: 3 (multiply by 8)" size="3" pos="57" value="030303">
        <field name="tcp.option_kind" showname="Kind: Window Scale (3)" size="1" pos="57" show="3" value="03"/>
        <field name="tcp.option_len" showname="Length: 3" size="1" pos="58" show="3" value="03"/>
        <field name="tcp.options.wscale.shift" showname="Shift count: 3" size="1" pos="59" show="3" value="03"/>
        <field name="tcp.options.wscale.multiplier" showname="Multiplier: 8" size="1" pos="59" show="8" value="03"/>
      </field>
    </field>
  </proto>
</packet>
<packet>
  <proto name="tcp" showname="Transmission Control Protocol, Src Port: 80, Dst Port: 61023, Seq: 0, Ack: 1, Len: 0" size="40" pos="20">
    <field name="tcp.srcport" showname="Source Port: 80" size="2" pos="20" show="80" value="0050"/>
    <field name="tcp.dstport" showname="Destination Port: 61023" size="2" pos="22" show="61023" value="ee5f"/>
    <field name="tcp.port" showname="Source or Destination Port: 80" hide="yes" size="2" pos="20" show="80" value="0050"/>
    <field name="tcp.port" showname="Source or Destination Port: 61023" hide="yes" size="2" pos="22" show="61023" value="ee5f"/>
    <field name="tcp.stream" showname="Stream index: 0" size="0" pos="20" show="0"/>
    <field name="tcp.len" showname="TCP Segment Len: 0" size="1" pos="32" show="0" value="a0"/>
    <field name="tcp.seq" showname="Sequence number: 0    (relative sequence number)" size="4" pos="24" show="0" value="c7ebfe82"/>
    <field name="tcp.ack" showname="Acknowledgment number: 1    (relative ack number)" size="4" pos="28" show="1" value="efa6815f"/>
    <field name="tcp.hdr_len" showname="Header Length: 40 bytes" size="1" pos="32" show="40" value="a0"/>
    <field name="tcp.flags" showname="Flags: 0x012 (SYN, ACK)" size="2" pos="32" show="0x00000012" value="12" unmaskedvalue="a012">
      <field name="tcp.flags.res" showname="000. .... .... = Reserved: Not set" size="1" pos="32" show="0" value="0" unmaskedvalue="a0"/>
      <field name="tcp.flags.ns" showname="...0 .... .... = Nonce: Not set" size="1" pos="32" show="0" value="0" unmaskedvalue="a0"/>
      <field name="tcp.flags.cwr" showname=".... 0... .... = Congestion Window Reduced (CWR): Not set" size="1" pos="33" show="0" value="0" unmaskedvalue="12"/>
      <field name="tcp.flags.ecn" showname=".... .0.. .... = ECN-Echo: Not set" size="1" pos="33" show="0" value="0" unmaskedvalue="12"/>
      <field name="tcp.flags.urg" showname=".... ..0. .... = Urgent: Not set" size="1" pos="33" show="0" value="0" unmaskedvalue="12"/>
      <field name="tcp.flags.ack" showname=".... ...1 .... = Acknowledgment: Set" size="1" pos="33" show="1" value="1" unmaskedvalue="12"/>
      <field name="tcp.flags.push" showname=".... .... 0... = Push: Not set" size="1" pos="33" show="0" value="0" unmaskedvalue="12"/>
      <field name="tcp.flags.reset" showname=".... .... .0.. = Reset: Not set" size="1" pos="33" show="0" value="0" unmaskedvalue="12"/>
      <field name="tcp.flags.syn" showname=".... .... ..1. = Syn: Set" size="1" pos="33" show="1" value="1" unmaskedvalue="12">
        <field name="_ws.expert" showname="Expert Info (Chat/Sequence): Connection establish acknowledge (SYN+ACK): server port 80" size="0" pos="33">
          <field name="tcp.connection.sack" showname="Connection establish acknowledge (SYN+ACK): server port 80" size="0" pos="0" show="" value=""/>
          <field name="_ws.expert.message" showname="Message: Connection establish acknowledge (SYN+ACK): server port 80" hide="yes" size="0" pos="0" show="Connection establish acknowledge (SYN+ACK): server port 80"/>
          <field name="_ws.expert.severity" showname="Severity level: Chat" size="0" pos="0" show="2097152"/>
          <field name="_ws.expert.group" showname="Group: Sequence" size="0" pos="0" show="33554432"/>
        </field>
      </field>
      <field name="tcp.flags.fin" showname=".... .... ...0 = Fin: Not set" size="1" pos="33" show="0" value="0" unmaskedvalue="12"/>
      <field name="tcp.flags.str" showname="TCP Flags: \xc2\xb7\xc2\xb7\xc2\xb7\xc2\xb7\xc2\xb7\xc2\xb7\xc2\xb7A\xc2\xb7\xc2\xb7S\xc2\xb7" size="2" pos="32" show="\xc2\xb7\xc2\xb7\xc2\xb7\xc2\xb7\xc2\xb7\xc2\xb7\xc2\xb7A\xc2\xb7\xc2\xb7S\xc2\xb7" value="a012"/>
    </field>
    <field name="tcp.window_size_value" showname="Window size value: 14480" size="2" pos="34" show="14480" value="3890"/>
    <field name="tcp.window_size" showname="Calculated window size: 14480" size="2" pos="34" show="14480" value="3890"/>
    <field name="tcp.checksum" showname="Checksum: 0x0000 [unverified]" size="2" pos="36" show="0x00000000" value="0000"/>
    <field name="tcp.checksum.status" showname="Checksum Status: Unverified" size="0" pos="36" show="2"/>
    <field name="tcp.urgent_pointer" showname="Urgent pointer: 0" size="2" pos="38" show="0" value="0000"/>
    <field name="tcp.options" showname="Options: (20 bytes), Maximum segment size, SACK permitted, Timestamps, No-Operation (NOP), Window scale" size="20" pos="40" show="02:04:05:b4:04:02:08:0a:eb:6e:ad:93:20:c0:84:04:01:03:03:09" value="020405b40402080aeb6ead9320c0840401030309">
      <field name="tcp.options.mss" showname="Maximum segment size: 1460 bytes" size="4" pos="40" show="" value="">
        <field name="tcp.option_kind" showname="Kind: Maximum Segment Size (2)" size="1" pos="40" show="2" value="02"/>
        <field name="tcp.option_len" showname="Length: 4" size="1" pos="41" show="4" value="04"/>
        <field name="tcp.options.mss_val" showname="MSS Value: 1460" size="2" pos="42" show="1460" value="05b4"/>
      </field>
      <field name="tcp.options.sack_perm" showname="TCP SACK Permitted Option: True" size="2" pos="44" show="1" value="0402">
        <field name="tcp.option_kind" showname="Kind: SACK Permitted (4)" size="1" pos="44" show="4" value="04"/>
        <field name="tcp.option_len" showname="Length: 2" size="1" pos="45" show="2" value="02"/>
      </field>
      <field name="" show="Timestamps: TSval 3949899155, TSecr 549487620" size="10" pos="46" value="080aeb6ead9320c08404">
        <field name="tcp.option_kind" showname="Kind: Time Stamp Option (8)" size="1" pos="46" show="8" value="08"/>
        <field name="tcp.option_len" showname="Length: 10" size="1" pos="47" show="10" value="0a"/>
        <field name="tcp.options.timestamp.tsval" showname="Timestamp value: 3949899155" size="4" pos="48" show="3949899155" value="eb6ead93"/>
        <field name="tcp.options.timestamp.tsecr" showname="Timestamp echo reply: 549487620" size="4" pos="52" show="549487620" value="20c08404"/>
      </field>
      <field name="" show="No-Operation (NOP)" size="1" pos="56" value="01">
        <field name="tcp.options.type" showname="Type: 1" size="1" pos="56" show="1" value="01">
          <field name="tcp.options.type.copy" showname="0... .... = Copy on fragmentation: No" size="1" pos="56" show="0" value="0" unmaskedvalue="01"/>
          <field name="tcp.options.type.class" showname=".00. .... = Class: Control (0)" size="1" pos="56" show="0" value="0" unmaskedvalue="01"/>
          <field name="tcp.options.type.number" showname="...0 0001 = Number: No-Operation (NOP) (1)" size="1" pos="56" show="1" value="1" unmaskedvalue="01"/>
        </field>
      </field>
      <field name="" show="Window scale: 9 (multiply by 512)" size="3" pos="57" value="030309">
        <field name="tcp.option_kind" showname="Kind: Window Scale (3)" size="1" pos="57" show="3" value="03"/>
        <field name="tcp.option_len" showname="Length: 3" size="1" pos="58" show="3" value="03"/>
        <field name="tcp.options.wscale.shift" showname="Shift count: 9" size="1" pos="59" show="9" value="09"/>
        <field name="tcp.options.wscale.multiplier" showname="Multiplier: 512" size="1" pos="59" show="512" value="09"/>
      </field>
    </field>
    <field name="tcp.analysis" showname="SEQ/ACK analysis" size="0" pos="20" show="" value="">
      <field name="tcp.analysis.acks_frame" showname="This is an ACK to the segment in frame: 1" size="0" pos="20" show="1"/>
      <field name="tcp.analysis.ack_rtt" showname="The RTT to ACK the segment was: 0.484943000 seconds" size="0" pos="20" show="0.484943000"/>
    </field>
  </proto>
</packet>
<packet>
  <proto name="tcp" showname="Transmission Control Protocol, Src Port: 61023, Dst Port: 80, Seq: 1, Ack: 1, Len: 0" size="32" pos="20">
    <field name="tcp.srcport" showname="Source Port: 61023" size="2" pos="20" show="61023" value="ee5f"/>
    <field name="tcp.dstport" showname="Destination Port: 80" size="2" pos="22" show="80" value="0050"/>
    <field name="tcp.port" showname="Source or Destination Port: 61023" hide="yes" size="2" pos="20" show="61023" value="ee5f"/>
    <field name="tcp.port" showname="Source or Destination Port: 80" hide="yes" size="2" pos="22" show="80" value="0050"/>
    <field name="tcp.stream" showname="Stream index: 0" size="0" pos="20" show="0"/>
    <field name="tcp.len" showname="TCP Segment Len: 0" size="1" pos="32" show="0" value="80"/>
    <field name="tcp.seq" showname="Sequence number: 1    (relative sequence number)" size="4" pos="24" show="1" value="efa6815f"/>
    <field name="tcp.ack" showname="Acknowledgment number: 1    (relative ack number)" size="4" pos="28" show="1" value="c7ebfe83"/>
    <field name="tcp.hdr_len" showname="Header Length: 32 bytes" size="1" pos="32" show="32" value="80"/>
    <field name="tcp.flags" showname="Flags: 0x010 (ACK)" size="2" pos="32" show="0x00000010" value="10" unmaskedvalue="8010">
      <field name="tcp.flags.res" showname="000. .... .... = Reserved: Not set" size="1" pos="32" show="0" value="0" unmaskedvalue="80"/>
      <field name="tcp.flags.ns" showname="...0 .... .... = Nonce: Not set" size="1" pos="32" show="0" value="0" unmaskedvalue="80"/>
      <field name="tcp.flags.cwr" showname=".... 0... .... = Congestion Window Reduced (CWR): Not set" size="1" pos="33" show="0" value="0" unmaskedvalue="10"/>
      <field name="tcp.flags.ecn" showname=".... .0.. .... = ECN-Echo: Not set" size="1" pos="33" show="0" value="0" unmaskedvalue="10"/>
      <field name="tcp.flags.urg" showname=".... ..0. .... = Urgent: Not set" size="1" pos="33" show="0" value="0" unmaskedvalue="10"/>
      <field name="tcp.flags.ack" showname=".... ...1 .... = Acknowledgment: Set" size="1" pos="33" show="1" value="1" unmaskedvalue="10"/>
      <field name="tcp.flags.push" showname=".... .... 0... = Push: Not set" size="1" pos="33" show="0" value="0" unmaskedvalue="10"/>
      <field name="tcp.flags.reset" showname=".... .... .0.. = Reset: Not set" size="1" pos="33" show="0" value="0" unmaskedvalue="10"/>
      <field name="tcp.flags.syn" showname=".... .... ..0. = Syn: Not set" size="1" pos="33" show="0" value="0" unmaskedvalue="10"/>
      <field name="tcp.flags.fin" showname=".... .... ...0 = Fin: Not set" size="1" pos="33" show="0" value="0" unmaskedvalue="10"/>
      <field name="tcp.flags.str" showname="TCP Flags: \xc2\xb7\xc2\xb7\xc2\xb7\xc2\xb7\xc2\xb7\xc2\xb7\xc2\xb7A\xc2\xb7\xc2\xb7\xc2\xb7\xc2\xb7" size="2" pos="32" show="\xc2\xb7\xc2\xb7\xc2\xb7\xc2\xb7\xc2\xb7\xc2\xb7\xc2\xb7A\xc2\xb7\xc2\xb7\xc2\xb7\xc2\xb7" value="8010"/>
    </field>
    <field name="tcp.window_size_value" showname="Window size value: 730" size="2" pos="34" show="730" value="02da"/>
    <field name="tcp.window_size" showname="Calculated window size: 5840" size="2" pos="34" show="5840" value="02da"/>
    <field name="tcp.window_size_scalefactor" showname="Window size scaling factor: 8" size="2" pos="34" show="8" value="02da"/>
    <field name="tcp.checksum" showname="Checksum: 0x0000 [unverified]" size="2" pos="36" show="0x00000000" value="0000"/>
    <field name="tcp.checksum.status" showname="Checksum Status: Unverified" size="0" pos="36" show="2"/>
    <field name="tcp.urgent_pointer" showname="Urgent pointer: 0" size="2" pos="38" show="0" value="0000"/>
    <field name="tcp.options" showname="Options: (12 bytes), No-Operation (NOP), No-Operation (NOP), Timestamps" size="12" pos="40" show="01:01:08:0a:20:c0:84:34:eb:6e:ad:93" value="0101080a20c08434eb6ead93">
      <field name="" show="No-Operation (NOP)" size="1" pos="40" value="01">
        <field name="tcp.options.type" showname="Type: 1" size="1" pos="40" show="1" value="01">
          <field name="tcp.options.type.copy" showname="0... .... = Copy on fragmentation: No" size="1" pos="40" show="0" value="0" unmaskedvalue="01"/>
          <field name="tcp.options.type.class" showname=".00. .... = Class: Control (0)" size="1" pos="40" show="0" value="0" unmaskedvalue="01"/>
          <field name="tcp.options.type.number" showname="...0 0001 = Number: No-Operation (NOP) (1)" size="1" pos="40" show="1" value="1" unmaskedvalue="01"/>
        </field>
      </field>
      <field name="" show="No-Operation (NOP)" size="1" pos="41" value="01">
        <field name="tcp.options.type" showname="Type: 1" size="1" pos="41" show="1" value="01">
          <field name="tcp.options.type.copy" showname="0... .... = Copy on fragmentation: No" size="1" pos="41" show="0" value="0" unmaskedvalue="01"/>
          <field name="tcp.options.type.class" showname=".00. .... = Class: Control (0)" size="1" pos="41" show="0" value="0" unmaskedvalue="01"/>
          <field name="tcp.options.type.number" showname="...0 0001 = Number: No-Operation (NOP) (1)" size="1" pos="41" show="1" value="1" unmaskedvalue="01"/>
        </field>
      </field>
      <field name="" show="Timestamps: TSval 549487668, TSecr 3949899155" size="10" pos="42" value="080a20c08434eb6ead93">
        <field name="tcp.option_kind" showname="Kind: Time Stamp Option (8)" size="1" pos="42" show="8" value="08"/>
        <field name="tcp.option_len" showname="Length: 10" size="1" pos="43" show="10" value="0a"/>
        <field name="tcp.options.timestamp.tsval" showname="Timestamp value: 549487668" size="4" pos="44" show="549487668" value="20c08434"/>
        <field name="tcp.options.timestamp.tsecr" showname="Timestamp echo reply: 3949899155" size="4" pos="48" show="3949899155" value="eb6ead93"/>
      </field>
    </field>
    <field name="tcp.analysis" showname="SEQ/ACK analysis" size="0" pos="20" show="" value="">
      <field name="tcp.analysis.acks_frame" showname="This is an ACK to the segment in frame: 2" size="0" pos="20" show="2"/>
      <field name="tcp.analysis.ack_rtt" showname="The RTT to ACK the segment was: 0.001447000 seconds" size="0" pos="20" show="0.001447000"/>
      <field name="tcp.analysis.initial_rtt" showname="iRTT: 0.486390000 seconds" size="0" pos="20" show="0.486390000"/>
    </field>
  </proto>
</packet>
<packet>
  <proto name="tcp" showname="Transmission Control Protocol, Src Port: 61023, Dst Port: 80, Seq: 1, Ack: 1, Len: 375" size="32" pos="20">
    <field name="tcp.srcport" showname="Source Port: 61023" size="2" pos="20" show="61023" value="ee5f"/>
    <field name="tcp.dstport" showname="Destination Port: 80" size="2" pos="22" show="80" value="0050"/>
    <field name="tcp.port" showname="Source or Destination Port: 61023" hide="yes" size="2" pos="20" show="61023" value="ee5f"/>
    <field name="tcp.port" showname="Source or Destination Port: 80" hide="yes" size="2" pos="22" show="80" value="0050"/>
    <field name="tcp.stream" showname="Stream index: 0" size="0" pos="20" show="0"/>
    <field name="tcp.len" showname="TCP Segment Len: 375" size="1" pos="32" show="375" value="80"/>
    <field name="tcp.seq" showname="Sequence number: 1    (relative sequence number)" size="4" pos="24" show="1" value="efa6815f"/>
    <field name="tcp.nxtseq" showname="Next sequence number: 376    (relative sequence number)" size="0" pos="20" show="376"/>
    <field name="tcp.ack" showname="Acknowledgment number: 1    (relative ack number)" size="4" pos="28" show="1" value="c7ebfe83"/>
    <field name="tcp.hdr_len" showname="Header Length: 32 bytes" size="1" pos="32" show="32" value="80"/>
    <field name="tcp.flags" showname="Flags: 0x018 (PSH, ACK)" size="2" pos="32" show="0x00000018" value="18" unmaskedvalue="8018">
      <field name="tcp.flags.res" showname="000. .... .... = Reserved: Not set" size="1" pos="32" show="0" value="0" unmaskedvalue="80"/>
      <field name="tcp.flags.ns" showname="...0 .... .... = Nonce: Not set" size="1" pos="32" show="0" value="0" unmaskedvalue="80"/>
      <field name="tcp.flags.cwr" showname=".... 0... .... = Congestion Window Reduced (CWR): Not set" size="1" pos="33" show="0" value="0" unmaskedvalue="18"/>
      <field name="tcp.flags.ecn" showname=".... .0.. .... = ECN-Echo: Not set" size="1" pos="33" show="0" value="0" unmaskedvalue="18"/>
      <field name="tcp.flags.urg" showname=".... ..0. .... = Urgent: Not set" size="1" pos="33" show="0" value="0" unmaskedvalue="18"/>
      <field name="tcp.flags.ack" showname=".... ...1 .... = Acknowledgment: Set" size="1" pos="33" show="1" value="1" unmaskedvalue="18"/>
      <field name="tcp.flags.push" showname=".... .... 1... = Push: Set" size="1" pos="33" show="1" value="1" unmaskedvalue="18"/>
      <field name="tcp.flags.reset" showname=".... .... .0.. = Reset: Not set" size="1" pos="33" show="0" value="0" unmaskedvalue="18"/>
      <field name="tcp.flags.syn" showname=".... .... ..0. = Syn: Not set" size="1" pos="33" show="0" value="0" unmaskedvalue="18"/>
      <field name="tcp.flags.fin" showname=".... .... ...0 = Fin: Not set" size="1" pos="33" show="0" value="0" unmaskedvalue="18"/>
      <field name="tcp.flags.str" showname="TCP Flags: \xc2\xb7\xc2\xb7\xc2\xb7\xc2\xb7\xc2\xb7\xc2\xb7\xc2\xb7AP\xc2\xb7\xc2\xb7\xc2\xb7" size="2" pos="32" show="\xc2\xb7\xc2\xb7\xc2\xb7\xc2\xb7\xc2\xb7\xc2\xb7\xc2\xb7AP\xc2\xb7\xc2\xb7\xc2\xb7" value="8018"/>
    </field>
    <field name="tcp.window_size_value" showname="Window size value: 730" size="2" pos="34" show="730" value="02da"/>
    <field name="tcp.window_size" showname="Calculated window size: 5840" size="2" pos="34" show="5840" value="02da"/>
    <field name="tcp.window_size_scalefactor" showname="Window size scaling factor: 8" size="2" pos="34" show="8" value="02da"/>
    <field name="tcp.checksum" showname="Checksum: 0x0000 [unverified]" size="2" pos="36" show="0x00000000" value="0000"/>
    <field name="tcp.checksum.status" showname="Checksum Status: Unverified" size="0" pos="36" show="2"/>
    <field name="tcp.urgent_pointer" showname="Urgent pointer: 0" size="2" pos="38" show="0" value="0000"/>
    <field name="tcp.options" showname="Options: (12 bytes), No-Operation (NOP), No-Operation (NOP), Timestamps" size="12" pos="40" show="01:01:08:0a:20:c0:84:34:eb:6e:ad:93" value="0101080a20c08434eb6ead93">
      <field name="" show="No-Operation (NOP)" size="1" pos="40" value="01">
        <field name="tcp.options.type" showname="Type: 1" size="1" pos="40" show="1" value="01">
          <field name="tcp.options.type.copy" showname="0... .... = Copy on fragmentation: No" size="1" pos="40" show="0" value="0" unmaskedvalue="01"/>
          <field name="tcp.options.type.class" showname=".00. .... = Class: Control (0)" size="1" pos="40" show="0" value="0" unmaskedvalue="01"/>
          <field name="tcp.options.type.number" showname="...0 0001 = Number: No-Operation (NOP) (1)" size="1" pos="40" show="1" value="1" unmaskedvalue="01"/>
        </field>
      </field>
      <field name="" show="No-Operation (NOP)" size="1" pos="41" value="01">
        <field name="tcp.options.type" showname="Type: 1" size="1" pos="41" show="1" value="01">
          <field name="tcp.options.type.copy" showname="0... .... = Copy on fragmentation: No" size="1" pos="41" show="0" value="0" unmaskedvalue="01"/>
          <field name="tcp.options.type.class" showname=".00. .... = Class: Control (0)" size="1" pos="41" show="0" value="0" unmaskedvalue="01"/>
          <field name="tcp.options.type.number" showname="...0 0001 = Number: No-Operation (NOP) (1)" size="1" pos="41" show="1" value="1" unmaskedvalue="01"/>
        </field>
      </field>
      <field name="" show="Timestamps: TSval 549487668, TSecr 3949899155" size="10" pos="42" value="080a20c08434eb6ead93">
        <field name="tcp.option_kind" showname="Kind: Time Stamp Option (8)" size="1" pos="42" show="8" value="08"/>
        <field name="tcp.option_len" showname="Length: 10" size="1" pos="43" show="10" value="0a"/>
        <field name="tcp.options.timestamp.tsval" showname="Timestamp value: 549487668" size="4" pos="44" show="549487668" value="20c08434"/>
        <field name="tcp.options.timestamp.tsecr" showname="Timestamp echo reply: 3949899155" size="4" pos="48" show="3949899155" value="eb6ead93"/>
      </field>
    </field>
    <field name="tcp.analysis" showname="SEQ/ACK analysis" size="0" pos="20" show="" value="">
      <field name="tcp.analysis.initial_rtt" showname="iRTT: 0.486390000 seconds" size="0" pos="20" show="0.486390000"/>
      <field name="tcp.analysis.bytes_in_flight" showname="Bytes in flight: 375" size="0" pos="20" show="375"/>
      <field name="tcp.analysis.push_bytes_sent" showname="Bytes sent since last PSH flag: 375" size="0" pos="20" show="375"/>
    </field>
  </proto>
</packet>
<packet>
  <proto name="tcp" showname="Transmission Control Protocol, Src Port: 80, Dst Port: 61023, Seq: 0, Ack: 1, Len: 0" size="40" pos="20">
    <field name="tcp.srcport" showname="Source Port: 80" size="2" pos="20" show="80" value="0050"/>
    <field name="tcp.dstport" showname="Destination Port: 61023" size="2" pos="22" show="61023" value="ee5f"/>
    <field name="tcp.port" showname="Source or Destination Port: 80" hide="yes" size="2" pos="20" show="80" value="0050"/>
    <field name="tcp.port" showname="Source or Destination Port: 61023" hide="yes" size="2" pos="22" show="61023" value="ee5f"/>
    <field name="tcp.stream" showname="Stream index: 0" size="0" pos="20" show="0"/>
    <field name="tcp.len" showname="TCP Segment Len: 0" size="1" pos="32" show="0" value="a0"/>
    <field name="tcp.seq" showname="Sequence number: 0    (relative sequence number)" size="4" pos="24" show="0" value="c7ebfe82"/>
    <field name="tcp.ack" showname="Acknowledgment number: 1    (relative ack number)" size="4" pos="28" show="1" value="efa6815f"/>
    <field name="tcp.hdr_len" showname="Header Length: 40 bytes" size="1" pos="32" show="40" value="a0"/>
    <field name="tcp.flags" showname="Flags: 0x012 (SYN, ACK)" size="2" pos="32" show="0x00000012" value="12" unmaskedvalue="a012">
      <field name="tcp.flags.res" showname="000. .... .... = Reserved: Not set" size="1" pos="32" show="0" value="0" unmaskedvalue="a0"/>
      <field name="tcp.flags.ns" showname="...0 .... .... = Nonce: Not set" size="1" pos="32" show="0" value="0" unmaskedvalue="a0"/>
      <field name="tcp.flags.cwr" showname=".... 0... .... = Congestion Window Reduced (CWR): Not set" size="1" pos="33" show="0" value="0" unmaskedvalue="12"/>
      <field name="tcp.flags.ecn" showname=".... .0.. .... = ECN-Echo: Not set" size="1" pos="33" show="0" value="0" unmaskedvalue="12"/>
      <field name="tcp.flags.urg" showname=".... ..0. .... = Urgent: Not set" size="1" pos="33" show="0" value="0" unmaskedvalue="12"/>
      <field name="tcp.flags.ack" showname=".... ...1 .... = Acknowledgment: Set" size="1" pos="33" show="1" value="1" unmaskedvalue="12"/>
      <field name="tcp.flags.push" showname=".... .... 0... = Push: Not set" size="1" pos="33" show="0" value="0" unmaskedvalue="12"/>
      <field name="tcp.flags.reset" showname=".... .... .0.. = Reset: Not set" size="1" pos="33" show="0" value="0" unmaskedvalue="12"/>
      <field name="tcp.flags.syn" showname=".... .... ..1. = Syn: Set" size="1" pos="33" show="1" value="1" unmaskedvalue="12">
        <field name="_ws.expert" showname="Expert Info (Chat/Sequence): Connection establish acknowledge (SYN+ACK): server port 80" size="0" pos="33">
          <field name="tcp.connection.sack" showname="Connection establish acknowledge (SYN+ACK): server port 80" size="0" pos="0" show="" value=""/>
          <field name="_ws.expert.message" showname="Message: Connection establish acknowledge (SYN+ACK): server port 80" hide="yes" size="0" pos="0" show="Connection establish acknowledge (SYN+ACK): server port 80"/>
          <field name="_ws.expert.severity" showname="Severity level: Chat" size="0" pos="0" show="2097152"/>
          <field name="_ws.expert.group" showname="Group: Sequence" size="0" pos="0" show="33554432"/>
        </field>
      </field>
      <field name="tcp.flags.fin" showname=".... .... ...0 = Fin: Not set" size="1" pos="33" show="0" value="0" unmaskedvalue="12"/>
      <field name="tcp.flags.str" showname="TCP Flags: \xc2\xb7\xc2\xb7\xc2\xb7\xc2\xb7\xc2\xb7\xc2\xb7\xc2\xb7A\xc2\xb7\xc2\xb7S\xc2\xb7" size="2" pos="32" show="\xc2\xb7\xc2\xb7\xc2\xb7\xc2\xb7\xc2\xb7\xc2\xb7\xc2\xb7A\xc2\xb7\xc2\xb7S\xc2\xb7" value="a012"/>
    </field>
    <field name="tcp.window_size_value" showname="Window size value: 14480" size="2" pos="34" show="14480" value="3890"/>
    <field name="tcp.window_size" showname="Calculated window size: 14480" size="2" pos="34" show="14480" value="3890"/>
    <field name="tcp.checksum" showname="Checksum: 0x0000 [unverified]" size="2" pos="36" show="0x00000000" value="0000"/>
    <field name="tcp.checksum.status" showname="Checksum Status: Unverified" size="0" pos="36" show="2"/>
    <field name="tcp.urgent_pointer" showname="Urgent pointer: 0" size="2" pos="38" show="0" value="0000"/>
    <field name="tcp.options" showname="Options: (20 bytes), Maximum segment size, SACK permitted, Timestamps, No-Operation (NOP), Window scale" size="20" pos="40" show="02:04:05:b4:04:02:08:0a:eb:6e:ae:ab:20:c0:84:04:01:03:03:09" value="020405b40402080aeb6eaeab20c0840401030309">
      <field name="tcp.options.mss" showname="Maximum segment size: 1460 bytes" size="4" pos="40" show="" value="">
        <field name="tcp.option_kind" showname="Kind: Maximum Segment Size (2)" size="1" pos="40" show="2" value="02"/>
        <field name="tcp.option_len" showname="Length: 4" size="1" pos="41" show="4" value="04"/>
        <field name="tcp.options.mss_val" showname="MSS Value: 1460" size="2" pos="42" show="1460" value="05b4"/>
      </field>
      <field name="tcp.options.sack_perm" showname="TCP SACK Permitted Option: True" size="2" pos="44" show="1" value="0402">
        <field name="tcp.option_kind" showname="Kind: SACK Permitted (4)" size="1" pos="44" show="4" value="04"/>
        <field name="tcp.option_len" showname="Length: 2" size="1" pos="45" show="2" value="02"/>
      </field>
      <field name="" show="Timestamps: TSval 3949899435, TSecr 549487620" size="10" pos="46" value="080aeb6eaeab20c08404">
        <field name="tcp.option_kind" showname="Kind: Time Stamp Option (8)" size="1" pos="46" show="8" value="08"/>
        <field name="tcp.option_len" showname="Length: 10" size="1" pos="47" show="10" value="0a"/>
        <field name="tcp.options.timestamp.tsval" showname="Timestamp value: 3949899435" size="4" pos="48" show="3949899435" value="eb6eaeab"/>
        <field name="tcp.options.timestamp.tsecr" showname="Timestamp echo reply: 549487620" size="4" pos="52" show="549487620" value="20c08404"/>
      </field>
      <field name="" show="No-Operation (NOP)" size="1" pos="56" value="01">
        <field name="tcp.options.type" showname="Type: 1" size="1" pos="56" show="1" value="01">
          <field name="tcp.options.type.copy" showname="0... .... = Copy on fragmentation: No" size="1" pos="56" show="0" value="0" unmaskedvalue="01"/>
          <field name="tcp.options.type.class" showname=".00. .... = Class: Control (0)" size="1" pos="56" show="0" value="0" unmaskedvalue="01"/>
          <field name="tcp.options.type.number" showname="...0 0001 = Number: No-Operation (NOP) (1)" size="1" pos="56" show="1" value="1" unmaskedvalue="01"/>
        </field>
      </field>
      <field name="" show="Window scale: 9 (multiply by 512)" size="3" pos="57" value="030309">
        <field name="tcp.option_kind" showname="Kind: Window Scale (3)" size="1" pos="57" show="3" value="03"/>
        <field name="tcp.option_len" showname="Length: 3" size="1" pos="58" show="3" value="03"/>
        <field name="tcp.options.wscale.shift" showname="Shift count: 9" size="1" pos="59" show="9" value="09"/>
        <field name="tcp.options.wscale.multiplier" showname="Multiplier: 512" size="1" pos="59" show="512" value="09"/>
      </field>
    </field>
    <field name="tcp.analysis" showname="SEQ/ACK analysis" size="0" pos="20" show="" value="">
      <field name="tcp.analysis.initial_rtt" showname="iRTT: 0.486390000 seconds" size="0" pos="20" show="0.486390000"/>
      <field name="tcp.analysis.flags" showname="TCP Analysis Flags" size="0" pos="20" show="" value="">
        <field name="_ws.expert" showname="Expert Info (Warning/Sequence): This frame is a (suspected) out-of-order segment" size="0" pos="20">
          <field name="tcp.analysis.out_of_order" showname="This frame is a (suspected) out-of-order segment" size="0" pos="0" show="" value=""/>
          <field name="_ws.expert.message" showname="Message: This frame is a (suspected) out-of-order segment" hide="yes" size="0" pos="0" show="This frame is a (suspected) out-of-order segment"/>
          <field name="_ws.expert.severity" showname="Severity level: Warning" size="0" pos="0" show="6291456"/>
          <field name="_ws.expert.group" showname="Group: Sequence" size="0" pos="0" show="33554432"/>
        </field>
      </field>
    </field>
  </proto>
</packet>
<packet>
  <proto name="tcp" showname="Transmission Control Protocol, Src Port: 61023, Dst Port: 80, Seq: 376, Ack: 1, Len: 0" size="44" pos="20">
    <field name="tcp.srcport" showname="Source Port: 61023" size="2" pos="20" show="61023" value="ee5f"/>
    <field name="tcp.dstport" showname="Destination Port: 80" size="2" pos="22" show="80" value="0050"/>
    <field name="tcp.port" showname="Source or Destination Port: 61023" hide="yes" size="2" pos="20" show="61023" value="ee5f"/>
    <field name="tcp.port" showname="Source or Destination Port: 80" hide="yes" size="2" pos="22" show="80" value="0050"/>
    <field name="tcp.stream" showname="Stream index: 0" size="0" pos="20" show="0"/>
    <field name="tcp.len" showname="TCP Segment Len: 0" size="1" pos="32" show="0" value="b0"/>
    <field name="tcp.seq" showname="Sequence number: 376    (relative sequence number)" size="4" pos="24" show="376" value="efa682d6"/>
    <field name="tcp.ack" showname="Acknowledgment number: 1    (relative ack number)" size="4" pos="28" show="1" value="c7ebfe83"/>
    <field name="tcp.hdr_len" showname="Header Length: 44 bytes" size="1" pos="32" show="44" value="b0"/>
    <field name="tcp.flags" showname="Flags: 0x010 (ACK)" size="2" pos="32" show="0x00000010" value="10" unmaskedvalue="b010">
      <field name="tcp.flags.res" showname="000. .... .... = Reserved: Not set" size="1" pos="32" show="0" value="0" unmaskedvalue="b0"/>
      <field name="tcp.flags.ns" showname="...0 .... .... = Nonce: Not set" size="1" pos="32" show="0" value="0" unmaskedvalue="b0"/>
      <field name="tcp.flags.cwr" showname=".... 0... .... = Congestion Window Reduced (CWR): Not set" size="1" pos="33" show="0" value="0" unmaskedvalue="10"/>
      <field name="tcp.flags.ecn" showname=".... .0.. .... = ECN-Echo: Not set" size="1" pos="33" show="0" value="0" unmaskedvalue="10"/>
      <field name="tcp.flags.urg" showname=".... ..0. .... = Urgent: Not set" size="1" pos="33" show="0" value="0" unmaskedvalue="10"/>
      <field name="tcp.flags.ack" showname=".... ...1 .... = Acknowledgment: Set" size="1" pos="33" show="1" value="1" unmaskedvalue="10"/>
      <field name="tcp.flags.push" showname=".... .... 0... = Push: Not set" size="1" pos="33" show="0" value="0" unmaskedvalue="10"/>
      <field name="tcp.flags.reset" showname=".... .... .0.. = Reset: Not set" size="1" pos="33" show="0" value="0" unmaskedvalue="10"/>
      <field name="tcp.flags.syn" showname=".... .... ..0. = Syn: Not set" size="1" pos="33" show="0" value="0" unmaskedvalue="10"/>
      <field name="tcp.flags.fin" showname=".... .... ...0 = Fin: Not set" size="1" pos="33" show="0" value="0" unmaskedvalue="10"/>
      <field name="tcp.flags.str" showname="TCP Flags: \xc2\xb7\xc2\xb7\xc2\xb7\xc2\xb7\xc2\xb7\xc2\xb7\xc2\xb7A\xc2\xb7\xc2\xb7\xc2\xb7\xc2\xb7" size="2" pos="32" show="\xc2\xb7\xc2\xb7\xc2\xb7\xc2\xb7\xc2\xb7\xc2\xb7\xc2\xb7A\xc2\xb7\xc2\xb7\xc2\xb7\xc2\xb7" value="b010"/>
    </field>
    <field name="tcp.window_size_value" showname="Window size value: 730" size="2" pos="34" show="730" value="02da"/>
    <field name="tcp.window_size" showname="Calculated window size: 5840" size="2" pos="34" show="5840" value="02da"/>
    <field name="tcp.window_size_scalefactor" showname="Window size scaling factor: 8" size="2" pos="34" show="8" value="02da"/>
    <field name="tcp.checksum" showname="Checksum: 0x0000 [unverified]" size="2" pos="36" show="0x00000000" value="0000"/>
    <field name="tcp.checksum.status" showname="Checksum Status: Unverified" size="0" pos="36" show="2"/>
    <field name="tcp.urgent_pointer" showname="Urgent pointer: 0" size="2" pos="38" show="0" value="0000"/>
    <field name="tcp.options" showname="Options: (24 bytes), No-Operation (NOP), No-Operation (NOP), Timestamps, No-Operation (NOP), No-Operation (NOP), SACK" size="24" pos="40" show="01:01:08:0a:20:c0:84:50:eb:6e:ae:ab:01:01:05:0a:c7:eb:fe:82:c7:eb:fe:83" value="0101080a20c08450eb6eaeab0101050ac7ebfe82c7ebfe83">
      <field name="" show="No-Operation (NOP)" size="1" pos="40" value="01">
        <field name="tcp.options.type" showname="Type: 1" size="1" pos="40" show="1" value="01">
          <field name="tcp.options.type.copy" showname="0... .... = Copy on fragmentation: No" size="1" pos="40" show="0" value="0" unmaskedvalue="01"/>
          <field name="tcp.options.type.class" showname=".00. .... = Class: Control (0)" size="1" pos="40" show="0" value="0" unmaskedvalue="01"/>
          <field name="tcp.options.type.number" showname="...0 0001 = Number: No-Operation (NOP) (1)" size="1" pos="40" show="1" value="1" unmaskedvalue="01"/>
        </field>
      </field>
      <field name="" show="No-Operation (NOP)" size="1" pos="41" value="01">
        <field name="tcp.options.type" showname="Type: 1" size="1" pos="41" show="1" value="01">
          <field name="tcp.options.type.copy" showname="0... .... = Copy on fragmentation: No" size="1" pos="41" show="0" value="0" unmaskedvalue="01"/>
          <field name="tcp.options.type.class" showname=".00. .... = Class: Control (0)" size="1" pos="41" show="0" value="0" unmaskedvalue="01"/>
          <field name="tcp.options.type.number" showname="...0 0001 = Number: No-Operation (NOP) (1)" size="1" pos="41" show="1" value="1" unmaskedvalue="01"/>
        </field>
      </field>
      <field name="" show="Timestamps: TSval 549487696, TSecr 3949899435" size="10" pos="42" value="080a20c08450eb6eaeab">
        <field name="tcp.option_kind" showname="Kind: Time Stamp Option (8)" size="1" pos="42" show="8" value="08"/>
        <field name="tcp.option_len" showname="Length: 10" size="1" pos="43" show="10" value="0a"/>
        <field name="tcp.options.timestamp.tsval" showname="Timestamp value: 549487696" size="4" pos="44" show="549487696" value="20c08450"/>
        <field name="tcp.options.timestamp.tsecr" showname="Timestamp echo reply: 3949899435" size="4" pos="48" show="3949899435" value="eb6eaeab"/>
      </field>
      <field name="" show="No-Operation (NOP)" size="1" pos="52" value="01">
        <field name="tcp.options.type" showname="Type: 1" size="1" pos="52" show="1" value="01">
          <field name="tcp.options.type.copy" showname="0... .... = Copy on fragmentation: No" size="1" pos="52" show="0" value="0" unmaskedvalue="01"/>
          <field name="tcp.options.type.class" showname=".00. .... = Class: Control (0)" size="1" pos="52" show="0" value="0" unmaskedvalue="01"/>
          <field name="tcp.options.type.number" showname="...0 0001 = Number: No-Operation (NOP) (1)" size="1" pos="52" show="1" value="1" unmaskedvalue="01"/>
        </field>
      </field>
      <field name="" show="No-Operation (NOP)" size="1" pos="53" value="01">
        <field name="tcp.options.type" showname="Type: 1" size="1" pos="53" show="1" value="01">
          <field name="tcp.options.type.copy" showname="0... .... = Copy on fragmentation: No" size="1" pos="53" show="0" value="0" unmaskedvalue="01"/>
          <field name="tcp.options.type.class" showname=".00. .... = Class: Control (0)" size="1" pos="53" show="0" value="0" unmaskedvalue="01"/>
          <field name="tcp.options.type.number" showname="...0 0001 = Number: No-Operation (NOP) (1)" size="1" pos="53" show="1" value="1" unmaskedvalue="01"/>
        </field>
      </field>
      <field name="" show="SACK: 0-1" size="10" pos="54" value="050ac7ebfe82c7ebfe83">
        <field name="tcp.option_kind" showname="Kind: SACK (5)" size="1" pos="54" show="5" value="05"/>
        <field name="tcp.option_len" showname="Length: 10" size="1" pos="55" show="10" value="0a"/>
        <field name="tcp.options.sack" showname="TCP SACK Option: True" hide="yes" size="10" pos="54" show="1" value="050ac7ebfe82c7ebfe83"/>
        <field name="tcp.options.sack_le" showname="left edge = 0 (relative)" size="4" pos="56" show="0" value="c7ebfe82"/>
        <field name="tcp.options.sack_re" showname="right edge = 1 (relative)" size="4" pos="60" show="1" value="c7ebfe83"/>
        <field name="tcp.options.sack.count" showname="TCP SACK Count: 1" size="0" pos="74" show="1"/>
      </field>
    </field>
    <field name="tcp.analysis" showname="SEQ/ACK analysis" size="0" pos="20" show="" value="">
      <field name="tcp.analysis.acks_frame" showname="This is an ACK to the segment in frame: 5" size="0" pos="20" show="5"/>
      <field name="tcp.analysis.ack_rtt" showname="The RTT to ACK the segment was: 0.000141000 seconds" size="0" pos="20" show="0.000141000"/>
      <field name="tcp.analysis.initial_rtt" showname="iRTT: 0.486390000 seconds" size="0" pos="20" show="0.486390000"/>
      <field name="tcp.analysis.flags" showname="TCP Analysis Flags" size="0" pos="20" show="" value="">
        <field name="tcp.analysis.duplicate_ack" showname="This is a TCP duplicate ack" size="0" pos="20" show="" value=""/>
      </field>
      <field name="tcp.analysis.duplicate_ack_num" showname="Duplicate ACK #: 1" size="0" pos="20" show="1"/>
      <field name="tcp.analysis.duplicate_ack_frame" showname="Duplicate to the ACK in frame: 3" size="0" pos="20" show="3">
        <field name="_ws.expert" showname="Expert Info (Note/Sequence): Duplicate ACK (#1)" size="0" pos="20">
          <field name="tcp.analysis.duplicate_ack" showname="Duplicate ACK (#1)" size="0" pos="0" show="" value=""/>
          <field name="_ws.expert.message" showname="Message: Duplicate ACK (#1)" hide="yes" size="0" pos="0" show="Duplicate ACK (#1)"/>
          <field name="_ws.expert.severity" showname="Severity level: Note" size="0" pos="0" show="4194304"/>
          <field name="_ws.expert.group" showname="Group: Sequence" size="0" pos="0" show="33554432"/>
        </field>
      </field>
    </field>
  </proto>
</packet>
<packet>
  <proto name="tcp" showname="Transmission Control Protocol, Src Port: 80, Dst Port: 61023, Seq: 1, Ack: 376, Len: 0" size="32" pos="20">
    <field name="tcp.srcport" showname="Source Port: 80" size="2" pos="20" show="80" value="0050"/>
    <field name="tcp.dstport" showname="Destination Port: 61023" size="2" pos="22" show="61023" value="ee5f"/>
    <field name="tcp.port" showname="Source or Destination Port: 80" hide="yes" size="2" pos="20" show="80" value="0050"/>
    <field name="tcp.port" showname="Source or Destination Port: 61023" hide="yes" size="2" pos="22" show="61023" value="ee5f"/>
    <field name="tcp.stream" showname="Stream index: 0" size="0" pos="20" show="0"/>
    <field name="tcp.len" showname="TCP Segment Len: 0" size="1" pos="32" show="0" value="80"/>
    <field name="tcp.seq" showname="Sequence number: 1    (relative sequence number)" size="4" pos="24" show="1" value="c7ebfe83"/>
    <field name="tcp.ack" showname="Acknowledgment number: 376    (relative ack number)" size="4" pos="28" show="376" value="efa682d6"/>
    <field name="tcp.hdr_len" showname="Header Length: 32 bytes" size="1" pos="32" show="32" value="80"/>
    <field name="tcp.flags" showname="Flags: 0x010 (ACK)" size="2" pos="32" show="0x00000010" value="10" unmaskedvalue="8010">
      <field name="tcp.flags.res" showname="000. .... .... = Reserved: Not set" size="1" pos="32" show="0" value="0" unmaskedvalue="80"/>
      <field name="tcp.flags.ns" showname="...0 .... .... = Nonce: Not set" size="1" pos="32" show="0" value="0" unmaskedvalue="80"/>
      <field name="tcp.flags.cwr" showname=".... 0... .... = Congestion Window Reduced (CWR): Not set" size="1" pos="33" show="0" value="0" unmaskedvalue="10"/>
      <field name="tcp.flags.ecn" showname=".... .0.. .... = ECN-Echo: Not set" size="1" pos="33" show="0" value="0" unmaskedvalue="10"/>
      <field name="tcp.flags.urg" showname=".... ..0. .... = Urgent: Not set" size="1" pos="33" show="0" value="0" unmaskedvalue="10"/>
      <field name="tcp.flags.ack" showname=".... ...1 .... = Acknowledgment: Set" size="1" pos="33" show="1" value="1" unmaskedvalue="10"/>
      <field name="tcp.flags.push" showname=".... .... 0... = Push: Not set" size="1" pos="33" show="0" value="0" unmaskedvalue="10"/>
      <field name="tcp.flags.reset" showname=".... .... .0.. = Reset: Not set" size="1" pos="33" show="0" value="0" unmaskedvalue="10"/>
      <field name="tcp.flags.syn" showname=".... .... ..0. = Syn: Not set" size="1" pos="33" show="0" value="0" unmaskedvalue="10"/>
      <field name="tcp.flags.fin" showname=".... .... ...0 = Fin: Not set" size="1" pos="33" show="0" value="0" unmaskedvalue="10"/>
      <field name="tcp.flags.str" showname="TCP Flags: \xc2\xb7\xc2\xb7\xc2\xb7\xc2\xb7\xc2\xb7\xc2\xb7\xc2\xb7A\xc2\xb7\xc2\xb7\xc2\xb7\xc2\xb7" size="2" pos="32" show="\xc2\xb7\xc2\xb7\xc2\xb7\xc2\xb7\xc2\xb7\xc2\xb7\xc2\xb7A\xc2\xb7\xc2\xb7\xc2\xb7\xc2\xb7" value="8010"/>
    </field>
    <field name="tcp.window_size_value" showname="Window size value: 31" size="2" pos="34" show="31" value="001f"/>
    <field name="tcp.window_size" showname="Calculated window size: 15872" size="2" pos="34" show="15872" value="001f"/>
    <field name="tcp.window_size_scalefactor" showname="Window size scaling factor: 512" size="2" pos="34" show="512" value="001f"/>
    <field name="tcp.checksum" showname="Checksum: 0x0000 [unverified]" size="2" pos="36" show="0x00000000" value="0000"/>
    <field name="tcp.checksum.status" showname="Checksum Status: Unverified" size="0" pos="36" show="2"/>
    <field name="tcp.urgent_pointer" showname="Urgent pointer: 0" size="2" pos="38" show="0" value="0000"/>
    <field name="tcp.options" showname="Options: (12 bytes), No-Operation (NOP), No-Operation (NOP), Timestamps" size="12" pos="40" show="01:01:08:0a:eb:6e:af:7a:20:c0:84:34" value="0101080aeb6eaf7a20c08434">
      <field name="" show="No-Operation (NOP)" size="1" pos="40" value="01">
        <field name="tcp.options.type" showname="Type: 1" size="1" pos="40" show="1" value="01">
          <field name="tcp.options.type.copy" showname="0... .... = Copy on fragmentation: No" size="1" pos="40" show="0" value="0" unmaskedvalue="01"/>
          <field name="tcp.options.type.class" showname=".00. .... = Class: Control (0)" size="1" pos="40" show="0" value="0" unmaskedvalue="01"/>
          <field name="tcp.options.type.number" showname="...0 0001 = Number: No-Operation (NOP) (1)" size="1" pos="40" show="1" value="1" unmaskedvalue="01"/>
        </field>
      </field>
      <field name="" show="No-Operation (NOP)" size="1" pos="41" value="01">
        <field name="tcp.options.type" showname="Type: 1" size="1" pos="41" show="1" value="01">
          <field name="tcp.options.type.copy" showname="0... .... = Copy on fragmentation: No" size="1" pos="41" show="0" value="0" unmaskedvalue="01"/>
          <field name="tcp.options.type.class" showname=".00. .... = Class: Control (0)" size="1" pos="41" show="0" value="0" unmaskedvalue="01"/>
          <field name="tcp.options.type.number" showname="...0 0001 = Number: No-Operation (NOP) (1)" size="1" pos="41" show="1" value="1" unmaskedvalue="01"/>
        </field>
      </field>
      <field name="" show="Timestamps: TSval 3949899642, TSecr 549487668" size="10" pos="42" value="080aeb6eaf7a20c08434">
        <field name="tcp.option_kind" showname="Kind: Time Stamp Option (8)" size="1" pos="42" show="8" value="08"/>
        <field name="tcp.option_len" showname="Length: 10" size="1" pos="43" show="10" value="0a"/>
        <field name="tcp.options.timestamp.tsval" showname="Timestamp value: 3949899642" size="4" pos="44" show="3949899642" value="eb6eaf7a"/>
        <field name="tcp.options.timestamp.tsecr" showname="Timestamp echo reply: 549487668" size="4" pos="48" show="549487668" value="20c08434"/>
      </field>
    </field>
    <field name="tcp.analysis" showname="SEQ/ACK analysis" size="0" pos="20" show="" value="">
      <field name="tcp.analysis.acks_frame" showname="This is an ACK to the segment in frame: 4" size="0" pos="20" show="4"/>
      <field name="tcp.analysis.ack_rtt" showname="The RTT to ACK the segment was: 0.487100000 seconds" size="0" pos="20" show="0.487100000"/>
      <field name="tcp.analysis.initial_rtt" showname="iRTT: 0.486390000 seconds" size="0" pos="20" show="0.486390000"/>
    </field>
  </proto>
</packet>
<packet>
  <proto name="tcp" showname="Transmission Control Protocol, Src Port: 80, Dst Port: 61023, Seq: 1, Ack: 376, Len: 1222" size="32" pos="20">
    <field name="tcp.srcport" showname="Source Port: 80" size="2" pos="20" show="80" value="0050"/>
    <field name="tcp.dstport" showname="Destination Port: 61023" size="2" pos="22" show="61023" value="ee5f"/>
    <field name="tcp.port" showname="Source or Destination Port: 80" hide="yes" size="2" pos="20" show="80" value="0050"/>
    <field name="tcp.port" showname="Source or Destination Port: 61023" hide="yes" size="2" pos="22" show="61023" value="ee5f"/>
    <field name="tcp.stream" showname="Stream index: 0" size="0" pos="20" show="0"/>
    <field name="tcp.len" showname="TCP Segment Len: 1222" size="1" pos="32" show="1222" value="80"/>
    <field name="tcp.seq" showname="Sequence number: 1    (relative sequence number)" size="4" pos="24" show="1" value="c7ebfe83"/>
    <field name="tcp.nxtseq" showname="Next sequence number: 1223    (relative sequence number)" size="0" pos="20" show="1223"/>
    <field name="tcp.ack" showname="Acknowledgment number: 376    (relative ack number)" size="4" pos="28" show="376" value="efa682d6"/>
    <field name="tcp.hdr_len" showname="Header Length: 32 bytes" size="1" pos="32" show="32" value="80"/>
    <field name="tcp.flags" showname="Flags: 0x018 (PSH, ACK)" size="2" pos="32" show="0x00000018" value="18" unmaskedvalue="8018">
      <field name="tcp.flags.res" showname="000. .... .... = Reserved: Not set" size="1" pos="32" show="0" value="0" unmaskedvalue="80"/>
      <field name="tcp.flags.ns" showname="...0 .... .... = Nonce: Not set" size="1" pos="32" show="0" value="0" unmaskedvalue="80"/>
      <field name="tcp.flags.cwr" showname=".... 0... .... = Congestion Window Reduced (CWR): Not set" size="1" pos="33" show="0" value="0" unmaskedvalue="18"/>
      <field name="tcp.flags.ecn" showname=".... .0.. .... = ECN-Echo: Not set" size="1" pos="33" show="0" value="0" unmaskedvalue="18"/>
      <field name="tcp.flags.urg" showname=".... ..0. .... = Urgent: Not set" size="1" pos="33" show="0" value="0" unmaskedvalue="18"/>
      <field name="tcp.flags.ack" showname=".... ...1 .... = Acknowledgment: Set" size="1" pos="33" show="1" value="1" unmaskedvalue="18"/>
      <field name="tcp.flags.push" showname=".... .... 1... = Push: Set" size="1" pos="33" show="1" value="1" unmaskedvalue="18"/>
      <field name="tcp.flags.reset" showname=".... .... .0.. = Reset: Not set" size="1" pos="33" show="0" value="0" unmaskedvalue="18"/>
      <field name="tcp.flags.syn" showname=".... .... ..0. = Syn: Not set" size="1" pos="33" show="0" value="0" unmaskedvalue="18"/>
      <field name="tcp.flags.fin" showname=".... .... ...0 = Fin: Not set" size="1" pos="33" show="0" value="0" unmaskedvalue="18"/>
      <field name="tcp.flags.str" showname="TCP Flags: \xc2\xb7\xc2\xb7\xc2\xb7\xc2\xb7\xc2\xb7\xc2\xb7\xc2\xb7AP\xc2\xb7\xc2\xb7\xc2\xb7" size="2" pos="32" show="\xc2\xb7\xc2\xb7\xc2\xb7\xc2\xb7\xc2\xb7\xc2\xb7\xc2\xb7AP\xc2\xb7\xc2\xb7\xc2\xb7" value="8018"/>
    </field>
    <field name="tcp.window_size_value" showname="Window size value: 31" size="2" pos="34" show="31" value="001f"/>
    <field name="tcp.window_size" showname="Calculated window size: 15872" size="2" pos="34" show="15872" value="001f"/>
    <field name="tcp.window_size_scalefactor" showname="Window size scaling factor: 512" size="2" pos="34" show="512" value="001f"/>
    <field name="tcp.checksum" showname="Checksum: 0x0000 [unverified]" size="2" pos="36" show="0x00000000" value="0000"/>
    <field name="tcp.checksum.status" showname="Checksum Status: Unverified" size="0" pos="36" show="2"/>
    <field name="tcp.urgent_pointer" showname="Urgent pointer: 0" size="2" pos="38" show="0" value="0000"/>
    <field name="tcp.options" showname="Options: (12 bytes), No-Operation (NOP), No-Operation (NOP), Timestamps" size="12" pos="40" show="01:01:08:0a:eb:6e:af:7b:20:c0:84:34" value="0101080aeb6eaf7b20c08434">
      <field name="" show="No-Operation (NOP)" size="1" pos="40" value="01">
        <field name="tcp.options.type" showname="Type: 1" size="1" pos="40" show="1" value="01">
          <field name="tcp.options.type.copy" showname="0... .... = Copy on fragmentation: No" size="1" pos="40" show="0" value="0" unmaskedvalue="01"/>
          <field name="tcp.options.type.class" showname=".00. .... = Class: Control (0)" size="1" pos="40" show="0" value="0" unmaskedvalue="01"/>
          <field name="tcp.options.type.number" showname="...0 0001 = Number: No-Operation (NOP) (1)" size="1" pos="40" show="1" value="1" unmaskedvalue="01"/>
        </field>
      </field>
      <field name="" show="No-Operation (NOP)" size="1" pos="41" value="01">
        <field name="tcp.options.type" showname="Type: 1" size="1" pos="41" show="1" value="01">
          <field name="tcp.options.type.copy" showname="0... .... = Copy on fragmentation: No" size="1" pos="41" show="0" value="0" unmaskedvalue="01"/>
          <field name="tcp.options.type.class" showname=".00. .... = Class: Control (0)" size="1" pos="41" show="0" value="0" unmaskedvalue="01"/>
          <field name="tcp.options.type.number" showname="...0 0001 = Number: No-Operation (NOP) (1)" size="1" pos="41" show="1" value="1" unmaskedvalue="01"/>
        </field>
      </field>
      <field name="" show="Timestamps: TSval 3949899643, TSecr 549487668" size="10" pos="42" value="080aeb6eaf7b20c08434">
        <field name="tcp.option_kind" showname="Kind: Time Stamp Option (8)" size="1" pos="42" show="8" value="08"/>
        <field name="tcp.option_len" showname="Length: 10" size="1" pos="43" show="10" value="0a"/>
        <field name="tcp.options.timestamp.tsval" showname="Timestamp value: 3949899643" size="4" pos="44" show="3949899643" value="eb6eaf7b"/>
        <field name="tcp.options.timestamp.tsecr" showname="Timestamp echo reply: 549487668" size="4" pos="48" show="549487668" value="20c08434"/>
      </field>
    </field>
    <field name="tcp.analysis" showname="SEQ/ACK analysis" size="0" pos="20" show="" value="">
      <field name="tcp.analysis.initial_rtt" showname="iRTT: 0.486390000 seconds" size="0" pos="20" show="0.486390000"/>
      <field name="tcp.analysis.bytes_in_flight" showname="Bytes in flight: 1222" size="0" pos="20" show="1222"/>
      <field name="tcp.analysis.push_bytes_sent" showname="Bytes sent since last PSH flag: 1222" size="0" pos="20" show="1222"/>
    </field>
  </proto>
</packet>
<packet>
  <proto name="tcp" showname="Transmission Control Protocol, Src Port: 61023, Dst Port: 80, Seq: 376, Ack: 1223, Len: 0" size="32" pos="20">
    <field name="tcp.srcport" showname="Source Port: 61023" size="2" pos="20" show="61023" value="ee5f"/>
    <field name="tcp.dstport" showname="Destination Port: 80" size="2" pos="22" show="80" value="0050"/>
    <field name="tcp.port" showname="Source or Destination Port: 61023" hide="yes" size="2" pos="20" show="61023" value="ee5f"/>
    <field name="tcp.port" showname="Source or Destination Port: 80" hide="yes" size="2" pos="22" show="80" value="0050"/>
    <field name="tcp.stream" showname="Stream index: 0" size="0" pos="20" show="0"/>
    <field name="tcp.len" showname="TCP Segment Len: 0" size="1" pos="32" show="0" value="80"/>
    <field name="tcp.seq" showname="Sequence number: 376    (relative sequence number)" size="4" pos="24" show="376" value="efa682d6"/>
    <field name="tcp.ack" showname="Acknowledgment number: 1223    (relative ack number)" size="4" pos="28" show="1223" value="c7ec0349"/>
    <field name="tcp.hdr_len" showname="Header Length: 32 bytes" size="1" pos="32" show="32" value="80"/>
    <field name="tcp.flags" showname="Flags: 0x010 (ACK)" size="2" pos="32" show="0x00000010" value="10" unmaskedvalue="8010">
      <field name="tcp.flags.res" showname="000. .... .... = Reserved: Not set" size="1" pos="32" show="0" value="0" unmaskedvalue="80"/>
      <field name="tcp.flags.ns" showname="...0 .... .... = Nonce: Not set" size="1" pos="32" show="0" value="0" unmaskedvalue="80"/>
      <field name="tcp.flags.cwr" showname=".... 0... .... = Congestion Window Reduced (CWR): Not set" size="1" pos="33" show="0" value="0" unmaskedvalue="10"/>
      <field name="tcp.flags.ecn" showname=".... .0.. .... = ECN-Echo: Not set" size="1" pos="33" show="0" value="0" unmaskedvalue="10"/>
      <field name="tcp.flags.urg" showname=".... ..0. .... = Urgent: Not set" size="1" pos="33" show="0" value="0" unmaskedvalue="10"/>
      <field name="tcp.flags.ack" showname=".... ...1 .... = Acknowledgment: Set" size="1" pos="33" show="1" value="1" unmaskedvalue="10"/>
      <field name="tcp.flags.push" showname=".... .... 0... = Push: Not set" size="1" pos="33" show="0" value="0" unmaskedvalue="10"/>
      <field name="tcp.flags.reset" showname=".... .... .0.. = Reset: Not set" size="1" pos="33" show="0" value="0" unmaskedvalue="10"/>
      <field name="tcp.flags.syn" showname=".... .... ..0. = Syn: Not set" size="1" pos="33" show="0" value="0" unmaskedvalue="10"/>
      <field name="tcp.flags.fin" showname=".... .... ...0 = Fin: Not set" size="1" pos="33" show="0" value="0" unmaskedvalue="10"/>
      <field name="tcp.flags.str" showname="TCP Flags: \xc2\xb7\xc2\xb7\xc2\xb7\xc2\xb7\xc2\xb7\xc2\xb7\xc2\xb7A\xc2\xb7\xc2\xb7\xc2\xb7\xc2\xb7" size="2" pos="32" show="\xc2\xb7\xc2\xb7\xc2\xb7\xc2\xb7\xc2\xb7\xc2\xb7\xc2\xb7A\xc2\xb7\xc2\xb7\xc2\xb7\xc2\xb7" value="8010"/>
    </field>
    <field name="tcp.window_size_value" showname="Window size value: 916" size="2" pos="34" show="916" value="0394"/>
    <field name="tcp.window_size" showname="Calculated window size: 7328" size="2" pos="34" show="7328" value="0394"/>
    <field name="tcp.window_size_scalefactor" showname="Window size scaling factor: 8" size="2" pos="34" show="8" value="0394"/>
    <field name="tcp.checksum" showname="Checksum: 0x0000 [unverified]" size="2" pos="36" show="0x00000000" value="0000"/>
    <field name="tcp.checksum.status" showname="Checksum Status: Unverified" size="0" pos="36" show="2"/>
    <field name="tcp.urgent_pointer" showname="Urgent pointer: 0" size="2" pos="38" show="0" value="0000"/>
    <field name="tcp.options" showname="Options: (12 bytes), No-Operation (NOP), No-Operation (NOP), Timestamps" size="12" pos="40" show="01:01:08:0a:20:c0:84:65:eb:6e:af:7b" value="0101080a20c08465eb6eaf7b">
      <field name="" show="No-Operation (NOP)" size="1" pos="40" value="01">
        <field name="tcp.options.type" showname="Type: 1" size="1" pos="40" show="1" value="01">
          <field name="tcp.options.type.copy" showname="0... .... = Copy on fragmentation: No" size="1" pos="40" show="0" value="0" unmaskedvalue="01"/>
          <field name="tcp.options.type.class" showname=".00. .... = Class: Control (0)" size="1" pos="40" show="0" value="0" unmaskedvalue="01"/>
          <field name="tcp.options.type.number" showname="...0 0001 = Number: No-Operation (NOP) (1)" size="1" pos="40" show="1" value="1" unmaskedvalue="01"/>
        </field>
      </field>
      <field name="" show="No-Operation (NOP)" size="1" pos="41" value="01">
        <field name="tcp.options.type" showname="Type: 1" size="1" pos="41" show="1" value="01">
          <field name="tcp.options.type.copy" showname="0... .... = Copy on fragmentation: No" size="1" pos="41" show="0" value="0" unmaskedvalue="01"/>
          <field name="tcp.options.type.class" showname=".00. .... = Class: Control (0)" size="1" pos="41" show="0" value="0" unmaskedvalue="01"/>
          <field name="tcp.options.type.number" showname="...0 0001 = Number: No-Operation (NOP) (1)" size="1" pos="41" show="1" value="1" unmaskedvalue="01"/>
        </field>
      </field>
      <field name="" show="Timestamps: TSval 549487717, TSecr 3949899643" size="10" pos="42" value="080a20c08465eb6eaf7b">
        <field name="tcp.option_kind" showname="Kind: Time Stamp Option (8)" size="1" pos="42" show="8" value="08"/>
        <field name="tcp.option_len" showname="Length: 10" size="1" pos="43" show="10" value="0a"/>
        <field name="tcp.options.timestamp.tsval" showname="Timestamp value: 549487717" size="4" pos="44" show="549487717" value="20c08465"/>
        <field name="tcp.options.timestamp.tsecr" showname="Timestamp echo reply: 3949899643" size="4" pos="48" show="3949899643" value="eb6eaf7b"/>
      </field>
    </field>
    <field name="tcp.analysis" showname="SEQ/ACK analysis" size="0" pos="20" show="" value="">
      <field name="tcp.analysis.acks_frame" showname="This is an ACK to the segment in frame: 8" size="0" pos="20" show="8"/>
      <field name="tcp.analysis.ack_rtt" showname="The RTT to ACK the segment was: 0.002274000 seconds" size="0" pos="20" show="0.002274000"/>
      <field name="tcp.analysis.initial_rtt" showname="iRTT: 0.486390000 seconds" size="0" pos="20" show="0.486390000"/>
    </field>
  </proto>
</packet>
<packet>
  <proto name="tcp" showname="Transmission Control Protocol, Src Port: 80, Dst Port: 61023, Seq: 1, Ack: 1, Len: 108" size="20" pos="20">
    <field name="tcp.srcport" showname="Source Port: 80" size="2" pos="20" show="80" value="0050"/>
    <field name="tcp.dstport" showname="Destination Port: 61023" size="2" pos="22" show="61023" value="ee5f"/>
    <field name="tcp.port" showname="Source or Destination Port: 80" hide="yes" size="2" pos="20" show="80" value="0050"/>
    <field name="tcp.port" showname="Source or Destination Port: 61023" hide="yes" size="2" pos="22" show="61023" value="ee5f"/>
    <field name="tcp.stream" showname="Stream index: 0" size="0" pos="20" show="0"/>
    <field name="tcp.len" showname="TCP Segment Len: 108" size="1" pos="32" show="108" value="50"/>
    <field name="tcp.seq" showname="Sequence number: 1    (relative sequence number)" size="4" pos="24" show="1" value="c7ebfe83"/>
    <field name="tcp.nxtseq" showname="Next sequence number: 110    (relative sequence number)" size="0" pos="20" show="110"/>
    <field name="tcp.ack" showname="Acknowledgment number: 1    (relative ack number)" size="4" pos="28" show="1" value="efa6815f"/>
    <field name="tcp.hdr_len" showname="Header Length: 20 bytes" size="1" pos="32" show="20" value="50"/>
    <field name="tcp.flags" showname="Flags: 0x011 (FIN, ACK)" size="2" pos="32" show="0x00000011" value="11" unmaskedvalue="5011">
      <field name="tcp.flags.res" showname="000. .... .... = Reserved: Not set" size="1" pos="32" show="0" value="0" unmaskedvalue="50"/>
      <field name="tcp.flags.ns" showname="...0 .... .... = Nonce: Not set" size="1" pos="32" show="0" value="0" unmaskedvalue="50"/>
      <field name="tcp.flags.cwr" showname=".... 0... .... = Congestion Window Reduced (CWR): Not set" size="1" pos="33" show="0" value="0" unmaskedvalue="11"/>
      <field name="tcp.flags.ecn" showname=".... .0.. .... = ECN-Echo: Not set" size="1" pos="33" show="0" value="0" unmaskedvalue="11"/>
      <field name="tcp.flags.urg" showname=".... ..0. .... = Urgent: Not set" size="1" pos="33" show="0" value="0" unmaskedvalue="11"/>
      <field name="tcp.flags.ack" showname=".... ...1 .... = Acknowledgment: Set" size="1" pos="33" show="1" value="1" unmaskedvalue="11"/>
      <field name="tcp.flags.push" showname=".... .... 0... = Push: Not set" size="1" pos="33" show="0" value="0" unmaskedvalue="11"/>
      <field name="tcp.flags.reset" showname=".... .... .0.. = Reset: Not set" size="1" pos="33" show="0" value="0" unmaskedvalue="11"/>
      <field name="tcp.flags.syn" showname=".... .... ..0. = Syn: Not set" size="1" pos="33" show="0" value="0" unmaskedvalue="11"/>
      <field name="tcp.flags.fin" showname=".... .... ...1 = Fin: Set" size="1" pos="33" show="1" value="1" unmaskedvalue="11">
        <field name="_ws.expert" showname="Expert Info (Chat/Sequence): Connection finish (FIN)" size="0" pos="33">
          <field name="tcp.connection.fin" showname="Connection finish (FIN)" size="0" pos="0" show="" value=""/>
          <field name="_ws.expert.message" showname="Message: Connection finish (FIN)" hide="yes" size="0" pos="0" show="Connection finish (FIN)"/>
          <field name="_ws.expert.severity" showname="Severity level: Chat" size="0" pos="0" show="2097152"/>
          <field name="_ws.expert.group" showname="Group: Sequence" size="0" pos="0" show="33554432"/>
        </field>
      </field>
      <field name="tcp.flags.str" showname="TCP Flags: \xc2\xb7\xc2\xb7\xc2\xb7\xc2\xb7\xc2\xb7\xc2\xb7\xc2\xb7A\xc2\xb7\xc2\xb7\xc2\xb7F" size="2" pos="32" show="\xc2\xb7\xc2\xb7\xc2\xb7\xc2\xb7\xc2\xb7\xc2\xb7\xc2\xb7A\xc2\xb7\xc2\xb7\xc2\xb7F" value="5011"/>
    </field>
    <field name="tcp.window_size_value" showname="Window size value: 55810" size="2" pos="34" show="55810" value="da02"/>
    <field name="tcp.window_size" showname="Calculated window size: 28574720" size="2" pos="34" show="28574720" value="da02"/>
    <field name="tcp.window_size_scalefactor" showname="Window size scaling factor: 512" size="2" pos="34" show="512" value="da02"/>
    <field name="tcp.checksum" showname="Checksum: 0x0000 [unverified]" size="2" pos="36" show="0x00000000" value="0000"/>
    <field name="tcp.checksum.status" showname="Checksum Status: Unverified" size="0" pos="36" show="2"/>
    <field name="tcp.urgent_pointer" showname="Urgent pointer: 0" size="2" pos="38" show="0" value="0000"/>
    <field name="tcp.analysis" showname="SEQ/ACK analysis" size="0" pos="20" show="" value="">
      <field name="tcp.analysis.initial_rtt" showname="iRTT: 0.486390000 seconds" size="0" pos="20" show="0.486390000"/>
      <field name="tcp.analysis.bytes_in_flight" showname="Bytes in flight: 109" size="0" pos="20" show="109"/>
      <field name="tcp.analysis.push_bytes_sent" showname="Bytes sent since last PSH flag: 108" size="0" pos="20" show="108"/>
      <field name="tcp.analysis.flags" showname="TCP Analysis Flags" size="0" pos="20" show="" value="">
        <field name="_ws.expert" showname="Expert Info (Warning/Sequence): This frame is a (suspected) out-of-order segment" size="0" pos="20">
          <field name="tcp.analysis.out_of_order" showname="This frame is a (suspected) out-of-order segment" size="0" pos="0" show="" value=""/>
          <field name="_ws.expert.message" showname="Message: This frame is a (suspected) out-of-order segment" hide="yes" size="0" pos="0" show="This frame is a (suspected) out-of-order segment"/>
          <field name="_ws.expert.severity" showname="Severity level: Warning" size="0" pos="0" show="6291456"/>
          <field name="_ws.expert.group" showname="Group: Sequence" size="0" pos="0" show="33554432"/>
        </field>
      </field>
    </field>
  </proto>
</packet>
</pdml>
