<?xml version="1.0"?>
<?xml-stylesheet type="text/xsl" href="pdml2html.xsl"?>
<pdml version="0" creator="wireshark/2.0.5" time="Sat Sep 17 01:03:30 2016" capture_file="/tmp/wireshark_pcapng_enp0s7_20160917010155_Pejnei">
<packet>
  <proto name="tcp" showname="Transmission Control Protocol, Src Port: 55394 (55394), Dst Port: 80 (80), Seq: 0, Len: 0" size="40" pos="34">
    <field name="tcp.srcport" showname="Source Port: 55394" size="2" pos="34" show="55394" value="d862"/>
    <field name="tcp.dstport" showname="Destination Port: 80" size="2" pos="36" show="80" value="0050"/>
    <field name="tcp.port" showname="Source or Destination Port: 55394" hide="yes" size="2" pos="34" show="55394" value="d862"/>
    <field name="tcp.port" showname="Source or Destination Port: 80" hide="yes" size="2" pos="36" show="80" value="0050"/>
    <field name="tcp.stream" showname="Stream index: 11" size="0" pos="34" show="11"/>
    <field name="tcp.len" showname="TCP Segment Len: 0" size="1" pos="46" show="0" value="a0"/>
    <field name="tcp.seq" showname="Sequence number: 0    (relative sequence number)" size="4" pos="38" show="0" value="ffe57d2d"/>
    <field name="tcp.ack" showname="Acknowledgment number: 0" size="4" pos="42" show="0" value="00000000"/>
    <field name="tcp.hdr_len" showname="Header Length: 40 bytes" size="1" pos="46" show="40" value="a0"/>
    <field name="tcp.flags" showname="Flags: 0x002 (SYN)" size="2" pos="46" show="0x00000002" value="2" unmaskedvalue="a002">
      <field name="tcp.flags.res" showname="000. .... .... = Reserved: Not set" size="1" pos="46" show="0" value="0" unmaskedvalue="a0"/>
      <field name="tcp.flags.ns" showname="...0 .... .... = Nonce: Not set" size="1" pos="46" show="0" value="0" unmaskedvalue="a0"/>
      <field name="tcp.flags.cwr" showname=".... 0... .... = Congestion Window Reduced (CWR): Not set" size="1" pos="47" show="0" value="0" unmaskedvalue="02"/>
      <field name="tcp.flags.ecn" showname=".... .0.. .... = ECN-Echo: Not set" size="1" pos="47" show="0" value="0" unmaskedvalue="02"/>
      <field name="tcp.flags.urg" showname=".... ..0. .... = Urgent: Not set" size="1" pos="47" show="0" value="0" unmaskedvalue="02"/>
      <field name="tcp.flags.ack" showname=".... ...0 .... = Acknowledgment: Not set" size="1" pos="47" show="0" value="0" unmaskedvalue="02"/>
      <field name="tcp.flags.push" showname=".... .... 0... = Push: Not set" size="1" pos="47" show="0" value="0" unmaskedvalue="02"/>
      <field name="tcp.flags.reset" showname=".... .... .0.. = Reset: Not set" size="1" pos="47" show="0" value="0" unmaskedvalue="02"/>
      <field name="tcp.flags.syn" showname=".... .... ..1. = Syn: Set" size="1" pos="47" show="1" value="1" unmaskedvalue="02">
        <field name="_ws.expert" showname="Expert Info (Chat/Sequence): Connection establish request (SYN): server port 80" size="0" pos="47">
          <field name="tcp.connection.syn" showname="Connection establish request (SYN): server port 80" size="0" pos="0" show="" value=""/>
          <field name="_ws.expert.message" showname="Message: Connection establish request (SYN): server port 80" hide="yes" size="0" pos="0" show="Connection establish request (SYN): server port 80"/>
          <field name="_ws.expert.severity" showname="Severity level: Chat" size="0" pos="0" show="0x00200000"/>
          <field name="_ws.expert.group" showname="Group: Sequence" size="0" pos="0" show="0x02000000"/>
        </field>
      </field>
      <field name="tcp.flags.fin" showname=".... .... ...0 = Fin: Not set" size="1" pos="47" show="0" value="0" unmaskedvalue="02"/>
      <field name="tcp.flags.str" showname="TCP Flags: **********S*" size="2" pos="46" show="**********S*" value="a002"/>
    </field>
    <field name="tcp.window_size_value" showname="Window size value: 29200" size="2" pos="48" show="29200" value="7210"/>
    <field name="tcp.window_size" showname="Calculated window size: 29200" size="2" pos="48" show="29200" value="7210"/>
    <field name="tcp.checksum" showname="Checksum: 0x64e6 [validation disabled]" size="2" pos="50" show="0x000064e6" value="64e6">
      <field name="tcp.checksum_good" showname="Good Checksum: False" size="2" pos="50" show="0" value="64e6"/>
      <field name="tcp.checksum_bad" showname="Bad Checksum: False" size="2" pos="50" show="0" value="64e6"/>
    </field>
    <field name="tcp.urgent_pointer" showname="Urgent pointer: 0" size="2" pos="52" show="0" value="0000"/>
    <field name="tcp.options" showname="Options: (20 bytes), Maximum segment size, SACK permitted, Timestamps, No-Operation (NOP), Window scale" size="20" pos="54" show="02:04:05:b4:04:02:08:0a:0a:fe:fa:a9:00:00:00:00:01:03:03:07" value="020405b40402080a0afefaa90000000001030307">
      <field name="tcp.options.mss" showname="Maximum segment size: 1460 bytes" size="4" pos="54" show="" value="">
        <field name="tcp.option_kind" showname="Kind: Maximum Segment Size (2)" size="1" pos="54" show="2" value="02"/>
        <field name="tcp.option_len" showname="Length: 4" size="1" pos="55" show="4" value="04"/>
        <field name="tcp.options.mss_val" showname="MSS Value: 1460" size="2" pos="56" show="1460" value="05b4"/>
      </field>
      <field name="tcp.options.sack_perm" showname="TCP SACK Permitted Option: True" size="2" pos="58" show="1" value="0402">
        <field name="tcp.option_kind" showname="Kind: SACK Permitted (4)" size="1" pos="58" show="4" value="04"/>
        <field name="tcp.option_len" showname="Length: 2" size="1" pos="59" show="2" value="02"/>
      </field>
      <field name="" show="Timestamps: TSval 184482473, TSecr 0" size="10" pos="60" value="080a0afefaa900000000">
        <field name="tcp.option_kind" showname="Kind: Time Stamp Option (8)" size="1" pos="60" show="8" value="08"/>
        <field name="tcp.option_len" showname="Length: 10" size="1" pos="61" show="10" value="0a"/>
        <field name="tcp.options.timestamp.tsval" showname="Timestamp value: 184482473" size="4" pos="62" show="184482473" value="0afefaa9"/>
        <field name="tcp.options.timestamp.tsecr" showname="Timestamp echo reply: 0" size="4" pos="66" show="0" value="00000000"/>
      </field>
      <field name="" show="No-Operation (NOP)" size="1" pos="70" value="01">
        <field name="tcp.options.type" showname="Type: 1" size="1" pos="70" show="1" value="01">
          <field name="tcp.options.type.copy" showname="0... .... = Copy on fragmentation: No" size="1" pos="70" show="0" value="0" unmaskedvalue="01"/>
          <field name="tcp.options.type.class" showname=".00. .... = Class: Control (0)" size="1" pos="70" show="0" value="0" unmaskedvalue="01"/>
          <field name="tcp.options.type.number" showname="...0 0001 = Number: No-Operation (NOP) (1)" size="1" pos="70" show="1" value="1" unmaskedvalue="01"/>
        </field>
      </field>
      <field name="" show="Window scale: 7 (multiply by 128)" size="3" pos="71" value="030307">
        <field name="tcp.option_kind" showname="Kind: Window Scale (3)" size="1" pos="71" show="3" value="03"/>
        <field name="tcp.option_len" showname="Length: 3" size="1" pos="72" show="3" value="03"/>
        <field name="tcp.options.wscale.shift" showname="Shift count: 7" size="1" pos="73" show="7" value="07"/>
        <field name="tcp.options.wscale.multiplier" showname="Multiplier: 128" size="1" pos="73" show="128" value="07"/>
      </field>
    </field>
  </proto>
</packet>
<packet>
  <proto name="tcp" showname="Transmission Control Protocol, Src Port: 80 (80), Dst Port: 55394 (55394), Seq: 0, Ack: 1, Len: 0" size="40" pos="34">
    <field name="tcp.srcport" showname="Source Port: 80" size="2" pos="34" show="80" value="0050"/>
    <field name="tcp.dstport" showname="Destination Port: 55394" size="2" pos="36" show="55394" value="d862"/>
    <field name="tcp.port" showname="Source or Destination Port: 80" hide="yes" size="2" pos="34" show="80" value="0050"/>
    <field name="tcp.port" showname="Source or Destination Port: 55394" hide="yes" size="2" pos="36" show="55394" value="d862"/>
    <field name="tcp.stream" showname="Stream index: 11" size="0" pos="34" show="11"/>
    <field name="tcp.len" showname="TCP Segment Len: 0" size="1" pos="46" show="0" value="a0"/>
    <field name="tcp.seq" showname="Sequence number: 0    (relative sequence number)" size="4" pos="38" show="0" value="2850019c"/>
    <field name="tcp.ack" showname="Acknowledgment number: 1    (relative ack number)" size="4" pos="42" show="1" value="ffe57d2e"/>
    <field name="tcp.hdr_len" showname="Header Length: 40 bytes" size="1" pos="46" show="40" value="a0"/>
    <field name="tcp.flags" showname="Flags: 0x012 (SYN, ACK)" size="2" pos="46" show="0x00000012" value="12" unmaskedvalue="a012">
      <field name="tcp.flags.res" showname="000. .... .... = Reserved: Not set" size="1" pos="46" show="0" value="0" unmaskedvalue="a0"/>
      <field name="tcp.flags.ns" showname="...0 .... .... = Nonce: Not set" size="1" pos="46" show="0" value="0" unmaskedvalue="a0"/>
      <field name="tcp.flags.cwr" showname=".... 0... .... = Congestion Window Reduced (CWR): Not set" size="1" pos="47" show="0" value="0" unmaskedvalue="12"/>
      <field name="tcp.flags.ecn" showname=".... .0.. .... = ECN-Echo: Not set" size="1" pos="47" show="0" value="0" unmaskedvalue="12"/>
      <field name="tcp.flags.urg" showname=".... ..0. .... = Urgent: Not set" size="1" pos="47" show="0" value="0" unmaskedvalue="12"/>
      <field name="tcp.flags.ack" showname=".... ...1 .... = Acknowledgment: Set" size="1" pos="47" show="1" value="1" unmaskedvalue="12"/>
      <field name="tcp.flags.push" showname=".... .... 0... = Push: Not set" size="1" pos="47" show="0" value="0" unmaskedvalue="12"/>
      <field name="tcp.flags.reset" showname=".... .... .0.. = Reset: Not set" size="1" pos="47" show="0" value="0" unmaskedvalue="12"/>
      <field name="tcp.flags.syn" showname=".... .... ..1. = Syn: Set" size="1" pos="47" show="1" value="1" unmaskedvalue="12">
        <field name="_ws.expert" showname="Expert Info (Chat/Sequence): Connection establish acknowledge (SYN+ACK): server port 80" size="0" pos="47">
          <field name="tcp.connection.sack" showname="Connection establish acknowledge (SYN+ACK): server port 80" size="0" pos="0" show="" value=""/>
          <field name="_ws.expert.message" showname="Message: Connection establish acknowledge (SYN+ACK): server port 80" hide="yes" size="0" pos="0" show="Connection establish acknowledge (SYN+ACK): server port 80"/>
          <field name="_ws.expert.severity" showname="Severity level: Chat" size="0" pos="0" show="0x00200000"/>
          <field name="_ws.expert.group" showname="Group: Sequence" size="0" pos="0" show="0x02000000"/>
        </field>
      </field>
      <field name="tcp.flags.fin" showname=".... .... ...0 = Fin: Not set" size="1" pos="47" show="0" value="0" unmaskedvalue="12"/>
      <field name="tcp.flags.str" showname="TCP Flags: *******A**S*" size="2" pos="46" show="*******A**S*" value="a012"/>
    </field>
    <field name="tcp.window_size_value" showname="Window size value: 3392" size="2" pos="48" show="3392" value="0d40"/>
    <field name="tcp.window_size" showname="Calculated window size: 3392" size="2" pos="48" show="3392" value="0d40"/>
    <field name="tcp.checksum" showname="Checksum: 0xff09 [validation disabled]" size="2" pos="50" show="0x0000ff09" value="ff09">
      <field name="tcp.checksum_good" showname="Good Checksum: False" size="2" pos="50" show="0" value="ff09"/>
      <field name="tcp.checksum_bad" showname="Bad Checksum: False" size="2" pos="50" show="0" value="ff09"/>
    </field>
    <field name="tcp.urgent_pointer" showname="Urgent pointer: 0" size="2" pos="52" show="0" value="0000"/>
    <field name="tcp.options" showname="Options: (20 bytes), Maximum segment size, SACK permitted, Timestamps, No-Operation (NOP), Window scale" size="20" pos="54" show="02:04:03:5c:04:02:08:0a:01:3a:a1:ce:0a:fe:fa:a9:01:03:03:06" value="0204035c0402080a013aa1ce0afefaa901030306">
      <field name="tcp.options.mss" showname="Maximum segment size: 860 bytes" size="4" pos="54" show="" value="">
        <field name="tcp.option_kind" showname="Kind: Maximum Segment Size (2)" size="1" pos="54" show="2" value="02"/>
        <field name="tcp.option_len" showname="Length: 4" size="1" pos="55" show="4" value="04"/>
        <field name="tcp.options.mss_val" showname="MSS Value: 860" size="2" pos="56" show="860" value="035c"/>
      </field>
      <field name="tcp.options.sack_perm" showname="TCP SACK Permitted Option: True" size="2" pos="58" show="1" value="0402">
        <field name="tcp.option_kind" showname="Kind: SACK Permitted (4)" size="1" pos="58" show="4" value="04"/>
        <field name="tcp.option_len" showname="Length: 2" size="1" pos="59" show="2" value="02"/>
      </field>
      <field name="" show="Timestamps: TSval 20619726, TSecr 184482473" size="10" pos="60" value="080a013aa1ce0afefaa9">
        <field name="tcp.option_kind" showname="Kind: Time Stamp Option (8)" size="1" pos="60" show="8" value="08"/>
        <field name="tcp.option_len" showname="Length: 10" size="1" pos="61" show="10" value="0a"/>
        <field name="tcp.options.timestamp.tsval" showname="Timestamp value: 20619726" size="4" pos="62" show="20619726" value="013aa1ce"/>
        <field name="tcp.options.timestamp.tsecr" showname="Timestamp echo reply: 184482473" size="4" pos="66" show="184482473" value="0afefaa9"/>
      </field>
      <field name="" show="No-Operation (NOP)" size="1" pos="70" value="01">
        <field name="tcp.options.type" showname="Type: 1" size="1" pos="70" show="1" value="01">
          <field name="tcp.options.type.copy" showname="0... .... = Copy on fragmentation: No" size="1" pos="70" show="0" value="0" unmaskedvalue="01"/>
          <field name="tcp.options.type.class" showname=".00. .... = Class: Control (0)" size="1" pos="70" show="0" value="0" unmaskedvalue="01"/>
          <field name="tcp.options.type.number" showname="...0 0001 = Number: No-Operation (NOP) (1)" size="1" pos="70" show="1" value="1" unmaskedvalue="01"/>
        </field>
      </field>
      <field name="" show="Window scale: 6 (multiply by 64)" size="3" pos="71" value="030306">
        <field name="tcp.option_kind" showname="Kind: Window Scale (3)" size="1" pos="71" show="3" value="03"/>
        <field name="tcp.option_len" showname="Length: 3" size="1" pos="72" show="3" value="03"/>
        <field name="tcp.options.wscale.shift" showname="Shift count: 6" size="1" pos="73" show="6" value="06"/>
        <field name="tcp.options.wscale.multiplier" showname="Multiplier: 64" size="1" pos="73" show="64" value="06"/>
      </field>
    </field>
    <field name="tcp.analysis" showname="SEQ/ACK analysis" size="0" pos="34" show="" value="">
      <field name="tcp.analysis.acks_frame" showname="This is an ACK to the segment in frame: 718" size="0" pos="34" show="718"/>
      <field name="tcp.analysis.ack_rtt" showname="The RTT to ACK the segment was: 0.190274344 seconds" size="0" pos="34" show="0.190274344"/>
      <field name="tcp.analysis.initial_rtt" showname="iRTT: 0.190337740 seconds" size="0" pos="34" show="0.190337740"/>
    </field>
  </proto>
</packet>
<packet>
  <proto name="tcp" showname="Transmission Control Protocol, Src Port: 55394 (55394), Dst Port: 80 (80), Seq: 1, Ack: 1, Len: 0" size="32" pos="34">
    <field name="tcp.srcport" showname="Source Port: 55394" size="2" pos="34" show="55394" value="d862"/>
    <field name="tcp.dstport" showname="Destination Port: 80" size="2" pos="36" show="80" value="0050"/>
    <field name="tcp.port" showname="Source or Destination Port: 55394" hide="yes" size="2" pos="34" show="55394" value="d862"/>
    <field name="tcp.port" showname="Source or Destination Port: 80" hide="yes" size="2" pos="36" show="80" value="0050"/>
    <field name="tcp.stream" showname="Stream index: 11" size="0" pos="34" show="11"/>
    <field name="tcp.len" showname="TCP Segment Len: 0" size="1" pos="46" show="0" value="80"/>
    <field name="tcp.seq" showname="Sequence number: 1    (relative sequence number)" size="4" pos="38" show="1" value="ffe57d2e"/>
    <field name="tcp.ack" showname="Acknowledgment number: 1    (relative ack number)" size="4" pos="42" show="1" value="2850019d"/>
    <field name="tcp.hdr_len" showname="Header Length: 32 bytes" size="1" pos="46" show="32" value="80"/>
    <field name="tcp.flags" showname="Flags: 0x010 (ACK)" size="2" pos="46" show="0x00000010" value="10" unmaskedvalue="8010">
      <field name="tcp.flags.res" showname="000. .... .... = Reserved: Not set" size="1" pos="46" show="0" value="0" unmaskedvalue="80"/>
      <field name="tcp.flags.ns" showname="...0 .... .... = Nonce: Not set" size="1" pos="46" show="0" value="0" unmaskedvalue="80"/>
      <field name="tcp.flags.cwr" showname=".... 0... .... = Congestion Window Reduced (CWR): Not set" size="1" pos="47" show="0" value="0" unmaskedvalue="10"/>
      <field name="tcp.flags.ecn" showname=".... .0.. .... = ECN-Echo: Not set" size="1" pos="47" show="0" value="0" unmaskedvalue="10"/>
      <field name="tcp.flags.urg" showname=".... ..0. .... = Urgent: Not set" size="1" pos="47" show="0" value="0" unmaskedvalue="10"/>
      <field name="tcp.flags.ack" showname=".... ...1 .... = Acknowledgment: Set" size="1" pos="47" show="1" value="1" unmaskedvalue="10"/>
      <field name="tcp.flags.push" showname=".... .... 0... = Push: Not set" size="1" pos="47" show="0" value="0" unmaskedvalue="10"/>
      <field name="tcp.flags.reset" showname=".... .... .0.. = Reset: Not set" size="1" pos="47" show="0" value="0" unmaskedvalue="10"/>
      <field name="tcp.flags.syn" showname=".... .... ..0. = Syn: Not set" size="1" pos="47" show="0" value="0" unmaskedvalue="10"/>
      <field name="tcp.flags.fin" showname=".... .... ...0 = Fin: Not set" size="1" pos="47" show="0" value="0" unmaskedvalue="10"/>
      <field name="tcp.flags.str" showname="TCP Flags: *******A****" size="2" pos="46" show="*******A****" value="8010"/>
    </field>
    <field name="tcp.window_size_value" showname="Window size value: 229" size="2" pos="48" show="229" value="00e5"/>
    <field name="tcp.window_size" showname="Calculated window size: 29312" size="2" pos="48" show="29312" value="00e5"/>
    <field name="tcp.window_size_scalefactor" showname="Window size scaling factor: 128" size="2" pos="48" show="128" value="00e5"/>
    <field name="tcp.checksum" showname="Checksum: 0x3719 [validation disabled]" size="2" pos="50" show="0x00003719" value="3719">
      <field name="tcp.checksum_good" showname="Good Checksum: False" size="2" pos="50" show="0" value="3719"/>
      <field name="tcp.checksum_bad" showname="Bad Checksum: False" size="2" pos="50" show="0" value="3719"/>
    </field>
    <field name="tcp.urgent_pointer" showname="Urgent pointer: 0" size="2" pos="52" show="0" value="0000"/>
    <field name="tcp.options" showname="Options: (12 bytes), No-Operation (NOP), No-Operation (NOP), Timestamps" size="12" pos="54" show="01:01:08:0a:0a:fe:fb:68:01:3a:a1:ce" value="0101080a0afefb68013aa1ce">
      <field name="" show="No-Operation (NOP)" size="1" pos="54" value="01">
        <field name="tcp.options.type" showname="Type: 1" size="1" pos="54" show="1" value="01">
          <field name="tcp.options.type.copy" showname="0... .... = Copy on fragmentation: No" size="1" pos="54" show="0" value="0" unmaskedvalue="01"/>
          <field name="tcp.options.type.class" showname=".00. .... = Class: Control (0)" size="1" pos="54" show="0" value="0" unmaskedvalue="01"/>
          <field name="tcp.options.type.number" showname="...0 0001 = Number: No-Operation (NOP) (1)" size="1" pos="54" show="1" value="1" unmaskedvalue="01"/>
        </field>
      </field>
      <field name="" show="No-Operation (NOP)" size="1" pos="55" value="01">
        <field name="tcp.options.type" showname="Type: 1" size="1" pos="55" show="1" value="01">
          <field name="tcp.options.type.copy" showname="0... .... = Copy on fragmentation: No" size="1" pos="55" show="0" value="0" unmaskedvalue="01"/>
          <field name="tcp.options.type.class" showname=".00. .... = Class: Control (0)" size="1" pos="55" show="0" value="0" unmaskedvalue="01"/>
          <field name="tcp.options.type.number" showname="...0 0001 = Number: No-Operation (NOP) (1)" size="1" pos="55" show="1" value="1" unmaskedvalue="01"/>
        </field>
      </field>
      <field name="" show="Timestamps: TSval 184482664, TSecr 20619726" size="10" pos="56" value="080a0afefb68013aa1ce">
        <field name="tcp.option_kind" showname="Kind: Time Stamp Option (8)" size="1" pos="56" show="8" value="08"/>
        <field name="tcp.option_len" showname="Length: 10" size="1" pos="57" show="10" value="0a"/>
        <field name="tcp.options.timestamp.tsval" showname="Timestamp value: 184482664" size="4" pos="58" show="184482664" value="0afefb68"/>
        <field name="tcp.options.timestamp.tsecr" showname="Timestamp echo reply: 20619726" size="4" pos="62" show="20619726" value="013aa1ce"/>
      </field>
    </field>
    <field name="tcp.analysis" showname="SEQ/ACK analysis" size="0" pos="34" show="" value="">
      <field name="tcp.analysis.acks_frame" showname="This is an ACK to the segment in frame: 767" size="0" pos="34" show="767"/>
      <field name="tcp.analysis.ack_rtt" showname="The RTT to ACK the segment was: 0.000063396 seconds" size="0" pos="34" show="0.000063396"/>
      <field name="tcp.analysis.initial_rtt" showname="iRTT: 0.190337740 seconds" size="0" pos="34" show="0.190337740"/>
    </field>
  </proto>
</packet>
<packet>
  <proto name="tcp" showname="Transmission Control Protocol, Src Port: 55394 (55394), Dst Port: 80 (80), Seq: 1, Ack: 1, Len: 330" size="32" pos="34">
    <field name="tcp.srcport" showname="Source Port: 55394" size="2" pos="34" show="55394" value="d862"/>
    <field name="tcp.dstport" showname="Destination Port: 80" size="2" pos="36" show="80" value="0050"/>
    <field name="tcp.port" showname="Source or Destination Port: 55394" hide="yes" size="2" pos="34" show="55394" value="d862"/>
    <field name="tcp.port" showname="Source or Destination Port: 80" hide="yes" size="2" pos="36" show="80" value="0050"/>
    <field name="tcp.stream" showname="Stream index: 11" size="0" pos="34" show="11"/>
    <field name="tcp.len" showname="TCP Segment Len: 330" size="1" pos="46" show="330" value="80"/>
    <field name="tcp.seq" showname="Sequence number: 1    (relative sequence number)" size="4" pos="38" show="1" value="ffe57d2e"/>
    <field name="tcp.nxtseq" showname="Next sequence number: 331    (relative sequence number)" size="0" pos="34" show="331"/>
    <field name="tcp.ack" showname="Acknowledgment number: 1    (relative ack number)" size="4" pos="42" show="1" value="2850019d"/>
    <field name="tcp.hdr_len" showname="Header Length: 32 bytes" size="1" pos="46" show="32" value="80"/>
    <field name="tcp.flags" showname="Flags: 0x018 (PSH, ACK)" size="2" pos="46" show="0x00000018" value="18" unmaskedvalue="8018">
      <field name="tcp.flags.res" showname="000. .... .... = Reserved: Not set" size="1" pos="46" show="0" value="0" unmaskedvalue="80"/>
      <field name="tcp.flags.ns" showname="...0 .... .... = Nonce: Not set" size="1" pos="46" show="0" value="0" unmaskedvalue="80"/>
      <field name="tcp.flags.cwr" showname=".... 0... .... = Congestion Window Reduced (CWR): Not set" size="1" pos="47" show="0" value="0" unmaskedvalue="18"/>
      <field name="tcp.flags.ecn" showname=".... .0.. .... = ECN-Echo: Not set" size="1" pos="47" show="0" value="0" unmaskedvalue="18"/>
      <field name="tcp.flags.urg" showname=".... ..0. .... = Urgent: Not set" size="1" pos="47" show="0" value="0" unmaskedvalue="18"/>
      <field name="tcp.flags.ack" showname=".... ...1 .... = Acknowledgment: Set" size="1" pos="47" show="1" value="1" unmaskedvalue="18"/>
      <field name="tcp.flags.push" showname=".... .... 1... = Push: Set" size="1" pos="47" show="1" value="1" unmaskedvalue="18"/>
      <field name="tcp.flags.reset" showname=".... .... .0.. = Reset: Not set" size="1" pos="47" show="0" value="0" unmaskedvalue="18"/>
      <field name="tcp.flags.syn" showname=".... .... ..0. = Syn: Not set" size="1" pos="47" show="0" value="0" unmaskedvalue="18"/>
      <field name="tcp.flags.fin" showname=".... .... ...0 = Fin: Not set" size="1" pos="47" show="0" value="0" unmaskedvalue="18"/>
      <field name="tcp.flags.str" showname="TCP Flags: *******AP***" size="2" pos="46" show="*******AP***" value="8018"/>
    </field>
    <field name="tcp.window_size_value" showname="Window size value: 229" size="2" pos="48" show="229" value="00e5"/>
    <field name="tcp.window_size" showname="Calculated window size: 29312" size="2" pos="48" show="29312" value="00e5"/>
    <field name="tcp.window_size_scalefactor" showname="Window size scaling factor: 128" size="2" pos="48" show="128" value="00e5"/>
    <field name="tcp.checksum" showname="Checksum: 0xa0c0 [validation disabled]" size="2" pos="50" show="0x0000a0c0" value="a0c0">
      <field name="tcp.checksum_good" showname="Good Checksum: False" size="2" pos="50" show="0" value="a0c0"/>
      <field name="tcp.checksum_bad" showname="Bad Checksum: False" size="2" pos="50" show="0" value="a0c0"/>
    </field>
    <field name="tcp.urgent_pointer" showname="Urgent pointer: 0" size="2" pos="52" show="0" value="0000"/>
    <field name="tcp.options" showname="Options: (12 bytes), No-Operation (NOP), No-Operation (NOP), Timestamps" size="12" pos="54" show="01:01:08:0a:0a:fe:fb:68:01:3a:a1:ce" value="0101080a0afefb68013aa1ce">
      <field name="" show="No-Operation (NOP)" size="1" pos="54" value="01">
        <field name="tcp.options.type" showname="Type: 1" size="1" pos="54" show="1" value="01">
          <field name="tcp.options.type.copy" showname="0... .... = Copy on fragmentation: No" size="1" pos="54" show="0" value="0" unmaskedvalue="01"/>
          <field name="tcp.options.type.class" showname=".00. .... = Class: Control (0)" size="1" pos="54" show="0" value="0" unmaskedvalue="01"/>
          <field name="tcp.options.type.number" showname="...0 0001 = Number: No-Operation (NOP) (1)" size="1" pos="54" show="1" value="1" unmaskedvalue="01"/>
        </field>
      </field>
      <field name="" show="No-Operation (NOP)" size="1" pos="55" value="01">
        <field name="tcp.options.type" showname="Type: 1" size="1" pos="55" show="1" value="01">
          <field name="tcp.options.type.copy" showname="0... .... = Copy on fragmentation: No" size="1" pos="55" show="0" value="0" unmaskedvalue="01"/>
          <field name="tcp.options.type.class" showname=".00. .... = Class: Control (0)" size="1" pos="55" show="0" value="0" unmaskedvalue="01"/>
          <field name="tcp.options.type.number" showname="...0 0001 = Number: No-Operation (NOP) (1)" size="1" pos="55" show="1" value="1" unmaskedvalue="01"/>
        </field>
      </field>
      <field name="" show="Timestamps: TSval 184482664, TSecr 20619726" size="10" pos="56" value="080a0afefb68013aa1ce">
        <field name="tcp.option_kind" showname="Kind: Time Stamp Option (8)" size="1" pos="56" show="8" value="08"/>
        <field name="tcp.option_len" showname="Length: 10" size="1" pos="57" show="10" value="0a"/>
        <field name="tcp.options.timestamp.tsval" showname="Timestamp value: 184482664" size="4" pos="58" show="184482664" value="0afefb68"/>
        <field name="tcp.options.timestamp.tsecr" showname="Timestamp echo reply: 20619726" size="4" pos="62" show="20619726" value="013aa1ce"/>
      </field>
    </field>
    <field name="tcp.analysis" showname="SEQ/ACK analysis" size="0" pos="34" show="" value="">
      <field name="tcp.analysis.initial_rtt" showname="iRTT: 0.190337740 seconds" size="0" pos="34" show="0.190337740"/>
      <field name="tcp.analysis.bytes_in_flight" showname="Bytes in flight: 330" size="0" pos="34" show="330"/>
    </field>
  </proto>
</packet>
<packet>
  <proto name="tcp" showname="Transmission Control Protocol, Src Port: 80 (80), Dst Port: 55394 (55394), Seq: 1, Ack: 331, Len: 0" size="32" pos="34">
    <field name="tcp.srcport" showname="Source Port: 80" size="2" pos="34" show="80" value="0050"/>
    <field name="tcp.dstport" showname="Destination Port: 55394" size="2" pos="36" show="55394" value="d862"/>
    <field name="tcp.port" showname="Source or Destination Port: 80" hide="yes" size="2" pos="34" show="80" value="0050"/>
    <field name="tcp.port" showname="Source or Destination Port: 55394" hide="yes" size="2" pos="36" show="55394" value="d862"/>
    <field name="tcp.stream" showname="Stream index: 11" size="0" pos="34" show="11"/>
    <field name="tcp.len" showname="TCP Segment Len: 0" size="1" pos="46" show="0" value="80"/>
    <field name="tcp.seq" showname="Sequence number: 1    (relative sequence number)" size="4" pos="38" show="1" value="2850019d"/>
    <field name="tcp.ack" showname="Acknowledgment number: 331    (relative ack number)" size="4" pos="42" show="331" value="ffe57e78"/>
    <field name="tcp.hdr_len" showname="Header Length: 32 bytes" size="1" pos="46" show="32" value="80"/>
    <field name="tcp.flags" showname="Flags: 0x010 (ACK)" size="2" pos="46" show="0x00000010" value="10" unmaskedvalue="8010">
      <field name="tcp.flags.res" showname="000. .... .... = Reserved: Not set" size="1" pos="46" show="0" value="0" unmaskedvalue="80"/>
      <field name="tcp.flags.ns" showname="...0 .... .... = Nonce: Not set" size="1" pos="46" show="0" value="0" unmaskedvalue="80"/>
      <field name="tcp.flags.cwr" showname=".... 0... .... = Congestion Window Reduced (CWR): Not set" size="1" pos="47" show="0" value="0" unmaskedvalue="10"/>
      <field name="tcp.flags.ecn" showname=".... .0.. .... = ECN-Echo: Not set" size="1" pos="47" show="0" value="0" unmaskedvalue="10"/>
      <field name="tcp.flags.urg" showname=".... ..0. .... = Urgent: Not set" size="1" pos="47" show="0" value="0" unmaskedvalue="10"/>
      <field name="tcp.flags.ack" showname=".... ...1 .... = Acknowledgment: Set" size="1" pos="47" show="1" value="1" unmaskedvalue="10"/>
      <field name="tcp.flags.push" showname=".... .... 0... = Push: Not set" size="1" pos="47" show="0" value="0" unmaskedvalue="10"/>
      <field name="tcp.flags.reset" showname=".... .... .0.. = Reset: Not set" size="1" pos="47" show="0" value="0" unmaskedvalue="10"/>
      <field name="tcp.flags.syn" showname=".... .... ..0. = Syn: Not set" size="1" pos="47" show="0" value="0" unmaskedvalue="10"/>
      <field name="tcp.flags.fin" showname=".... .... ...0 = Fin: Not set" size="1" pos="47" show="0" value="0" unmaskedvalue="10"/>
      <field name="tcp.flags.str" showname="TCP Flags: *******A****" size="2" pos="46" show="*******A****" value="8010"/>
    </field>
    <field name="tcp.window_size_value" showname="Window size value: 70" size="2" pos="48" show="70" value="0046"/>
    <field name="tcp.window_size" showname="Calculated window size: 4480" size="2" pos="48" show="4480" value="0046"/>
    <field name="tcp.window_size_scalefactor" showname="Window size scaling factor: 64" size="2" pos="48" show="64" value="0046"/>
    <field name="tcp.checksum" showname="Checksum: 0x363d [validation disabled]" size="2" pos="50" show="0x0000363d" value="363d">
      <field name="tcp.checksum_good" showname="Good Checksum: False" size="2" pos="50" show="0" value="363d"/>
      <field name="tcp.checksum_bad" showname="Bad Checksum: False" size="2" pos="50" show="0" value="363d"/>
    </field>
    <field name="tcp.urgent_pointer" showname="Urgent pointer: 0" size="2" pos="52" show="0" value="0000"/>
    <field name="tcp.options" showname="Options: (12 bytes), No-Operation (NOP), No-Operation (NOP), Timestamps" size="12" pos="54" show="01:01:08:0a:01:3a:a1:ff:0a:fe:fb:68" value="0101080a013aa1ff0afefb68">
      <field name="" show="No-Operation (NOP)" size="1" pos="54" value="01">
        <field name="tcp.options.type" showname="Type: 1" size="1" pos="54" show="1" value="01">
          <field name="tcp.options.type.copy" showname="0... .... = Copy on fragmentation: No" size="1" pos="54" show="0" value="0" unmaskedvalue="01"/>
          <field name="tcp.options.type.class" showname=".00. .... = Class: Control (0)" size="1" pos="54" show="0" value="0" unmaskedvalue="01"/>
          <field name="tcp.options.type.number" showname="...0 0001 = Number: No-Operation (NOP) (1)" size="1" pos="54" show="1" value="1" unmaskedvalue="01"/>
        </field>
      </field>
      <field name="" show="No-Operation (NOP)" size="1" pos="55" value="01">
        <field name="tcp.options.type" showname="Type: 1" size="1" pos="55" show="1" value="01">
          <field name="tcp.options.type.copy" showname="0... .... = Copy on fragmentation: No" size="1" pos="55" show="0" value="0" unmaskedvalue="01"/>
          <field name="tcp.options.type.class" showname=".00. .... = Class: Control (0)" size="1" pos="55" show="0" value="0" unmaskedvalue="01"/>
          <field name="tcp.options.type.number" showname="...0 0001 = Number: No-Operation (NOP) (1)" size="1" pos="55" show="1" value="1" unmaskedvalue="01"/>
        </field>
      </field>
      <field name="" show="Timestamps: TSval 20619775, TSecr 184482664" size="10" pos="56" value="080a013aa1ff0afefb68">
        <field name="tcp.option_kind" showname="Kind: Time Stamp Option (8)" size="1" pos="56" show="8" value="08"/>
        <field name="tcp.option_len" showname="Length: 10" size="1" pos="57" show="10" value="0a"/>
        <field name="tcp.options.timestamp.tsval" showname="Timestamp value: 20619775" size="4" pos="58" show="20619775" value="013aa1ff"/>
        <field name="tcp.options.timestamp.tsecr" showname="Timestamp echo reply: 184482664" size="4" pos="62" show="184482664" value="0afefb68"/>
      </field>
    </field>
    <field name="tcp.analysis" showname="SEQ/ACK analysis" size="0" pos="34" show="" value="">
      <field name="tcp.analysis.acks_frame" showname="This is an ACK to the segment in frame: 769" size="0" pos="34" show="769"/>
      <field name="tcp.analysis.ack_rtt" showname="The RTT to ACK the segment was: 0.194123025 seconds" size="0" pos="34" show="0.194123025"/>
      <field name="tcp.analysis.initial_rtt" showname="iRTT: 0.190337740 seconds" size="0" pos="34" show="0.190337740"/>
    </field>
  </proto>
</packet>
<packet>
  <proto name="tcp" showname="Transmission Control Protocol, Src Port: 80 (80), Dst Port: 55394 (55394), Seq: 1, Ack: 331, Len: 0" size="32" pos="34">
    <field name="tcp.srcport" showname="Source Port: 80" size="2" pos="34" show="80" value="0050"/>
    <field name="tcp.dstport" showname="Destination Port: 55394" size="2" pos="36" show="55394" value="d862"/>
    <field name="tcp.port" showname="Source or Destination Port: 80" hide="yes" size="2" pos="34" show="80" value="0050"/>
    <field name="tcp.port" showname="Source or Destination Port: 55394" hide="yes" size="2" pos="36" show="55394" value="d862"/>
    <field name="tcp.stream" showname="Stream index: 11" size="0" pos="34" show="11"/>
    <field name="tcp.len" showname="TCP Segment Len: 0" size="1" pos="46" show="0" value="80"/>
    <field name="tcp.seq" showname="Sequence number: 1    (relative sequence number)" size="4" pos="38" show="1" value="2850019d"/>
    <field name="tcp.ack" showname="Acknowledgment number: 331    (relative ack number)" size="4" pos="42" show="331" value="ffe57e78"/>
    <field name="tcp.hdr_len" showname="Header Length: 32 bytes" size="1" pos="46" show="32" value="80"/>
    <field name="tcp.flags" showname="Flags: 0x010 (ACK)" size="2" pos="46" show="0x00000010" value="10" unmaskedvalue="8010">
      <field name="tcp.flags.res" showname="000. .... .... = Reserved: Not set" size="1" pos="46" show="0" value="0" unmaskedvalue="80"/>
      <field name="tcp.flags.ns" showname="...0 .... .... = Nonce: Not set" size="1" pos="46" show="0" value="0" unmaskedvalue="80"/>
      <field name="tcp.flags.cwr" showname=".... 0... .... = Congestion Window Reduced (CWR): Not set" size="1" pos="47" show="0" value="0" unmaskedvalue="10"/>
      <field name="tcp.flags.ecn" showname=".... .0.. .... = ECN-Echo: Not set" size="1" pos="47" show="0" value="0" unmaskedvalue="10"/>
      <field name="tcp.flags.urg" showname=".... ..0. .... = Urgent: Not set" size="1" pos="47" show="0" value="0" unmaskedvalue="10"/>
      <field name="tcp.flags.ack" showname=".... ...1 .... = Acknowledgment: Set" size="1" pos="47" show="1" value="1" unmaskedvalue="10"/>
      <field name="tcp.flags.push" showname=".... .... 0... = Push: Not set" size="1" pos="47" show="0" value="0" unmaskedvalue="10"/>
      <field name="tcp.flags.reset" showname=".... .... .0.. = Reset: Not set" size="1" pos="47" show="0" value="0" unmaskedvalue="10"/>
      <field name="tcp.flags.syn" showname=".... .... ..0. = Syn: Not set" size="1" pos="47" show="0" value="0" unmaskedvalue="10"/>
      <field name="tcp.flags.fin" showname=".... .... ...0 = Fin: Not set" size="1" pos="47" show="0" value="0" unmaskedvalue="10"/>
      <field name="tcp.flags.str" showname="TCP Flags: *******A****" size="2" pos="46" show="*******A****" value="8010"/>
    </field>
    <field name="tcp.window_size_value" showname="Window size value: 70" size="2" pos="48" show="70" value="0046"/>
    <field name="tcp.window_size" showname="Calculated window size: 4480" size="2" pos="48" show="4480" value="0046"/>
    <field name="tcp.window_size_scalefactor" showname="Window size scaling factor: 64" size="2" pos="48" show="64" value="0046"/>
    <field name="tcp.checksum" showname="Checksum: 0x363d [validation disabled]" size="2" pos="50" show="0x0000363d" value="363d">
      <field name="tcp.checksum_good" showname="Good Checksum: False" size="2" pos="50" show="0" value="363d"/>
      <field name="tcp.checksum_bad" showname="Bad Checksum: False" size="2" pos="50" show="0" value="363d"/>
    </field>
    <field name="tcp.urgent_pointer" showname="Urgent pointer: 0" size="2" pos="52" show="0" value="0000"/>
    <field name="tcp.options" showname="Options: (12 bytes), No-Operation (NOP), No-Operation (NOP), Timestamps" size="12" pos="54" show="01:01:08:0a:01:3a:a1:ff:0a:fe:fb:68" value="0101080a013aa1ff0afefb68">
      <field name="" show="No-Operation (NOP)" size="1" pos="54" value="01">
        <field name="tcp.options.type" showname="Type: 1" size="1" pos="54" show="1" value="01">
          <field name="tcp.options.type.copy" showname="0... .... = Copy on fragmentation: No" size="1" pos="54" show="0" value="0" unmaskedvalue="01"/>
          <field name="tcp.options.type.class" showname=".00. .... = Class: Control (0)" size="1" pos="54" show="0" value="0" unmaskedvalue="01"/>
          <field name="tcp.options.type.number" showname="...0 0001 = Number: No-Operation (NOP) (1)" size="1" pos="54" show="1" value="1" unmaskedvalue="01"/>
        </field>
      </field>
      <field name="" show="No-Operation (NOP)" size="1" pos="55" value="01">
        <field name="tcp.options.type" showname="Type: 1" size="1" pos="55" show="1" value="01">
          <field name="tcp.options.type.copy" showname="0... .... = Copy on fragmentation: No" size="1" pos="55" show="0" value="0" unmaskedvalue="01"/>
          <field name="tcp.options.type.class" showname=".00. .... = Class: Control (0)" size="1" pos="55" show="0" value="0" unmaskedvalue="01"/>
          <field name="tcp.options.type.number" showname="...0 0001 = Number: No-Operation (NOP) (1)" size="1" pos="55" show="1" value="1" unmaskedvalue="01"/>
        </field>
      </field>
      <field name="" show="Timestamps: TSval 20619775, TSecr 184482664" size="10" pos="56" value="080a013aa1ff0afefb68">
        <field name="tcp.option_kind" showname="Kind: Time Stamp Option (8)" size="1" pos="56" show="8" value="08"/>
        <field name="tcp.option_len" showname="Length: 10" size="1" pos="57" show="10" value="0a"/>
        <field name="tcp.options.timestamp.tsval" showname="Timestamp value: 20619775" size="4" pos="58" show="20619775" value="013aa1ff"/>
        <field name="tcp.options.timestamp.tsecr" showname="Timestamp echo reply: 184482664" size="4" pos="62" show="184482664" value="0afefb68"/>
      </field>
    </field>
    <field name="tcp.analysis" showname="SEQ/ACK analysis" size="0" pos="34" show="" value="">
      <field name="tcp.analysis.initial_rtt" showname="iRTT: 0.190337740 seconds" size="0" pos="34" show="0.190337740"/>
      <field name="tcp.analysis.flags" showname="TCP Analysis Flags" size="0" pos="34" show="" value="">
        <field name="tcp.analysis.duplicate_ack" showname="This is a TCP duplicate ack" size="0" pos="34" show="" value=""/>
      </field>
      <field name="tcp.analysis.duplicate_ack_num" showname="Duplicate ACK #: 1" size="0" pos="34" show="1"/>
      <field name="tcp.analysis.duplicate_ack_frame" showname="Duplicate to the ACK in frame: 770" size="0" pos="34" show="770">
        <field name="_ws.expert" showname="Expert Info (Note/Sequence): Duplicate ACK (#1)" size="0" pos="34">
          <field name="tcp.analysis.duplicate_ack" showname="Duplicate ACK (#1)" size="0" pos="0" show="" value=""/>
          <field name="_ws.expert.message" showname="Message: Duplicate ACK (#1)" hide="yes" size="0" pos="0" show="Duplicate ACK (#1)"/>
          <field name="_ws.expert.severity" showname="Severity level: Note" size="0" pos="0" show="0x00400000"/>
          <field name="_ws.expert.group" showname="Group: Sequence" size="0" pos="0" show="0x02000000"/>
        </field>
      </field>
    </field>
  </proto>
</packet>
<packet>
  <proto name="tcp" showname="Transmission Control Protocol, Src Port: 80 (80), Dst Port: 55394 (55394), Seq: 1, Ack: 331, Len: 848" size="32" pos="34">
    <field name="tcp.srcport" showname="Source Port: 80" size="2" pos="34" show="80" value="0050"/>
    <field name="tcp.dstport" showname="Destination Port: 55394" size="2" pos="36" show="55394" value="d862"/>
    <field name="tcp.port" showname="Source or Destination Port: 80" hide="yes" size="2" pos="34" show="80" value="0050"/>
    <field name="tcp.port" showname="Source or Destination Port: 55394" hide="yes" size="2" pos="36" show="55394" value="d862"/>
    <field name="tcp.stream" showname="Stream index: 11" size="0" pos="34" show="11"/>
    <field name="tcp.len" showname="TCP Segment Len: 848" size="1" pos="46" show="848" value="80"/>
    <field name="tcp.seq" showname="Sequence number: 1    (relative sequence number)" size="4" pos="38" show="1" value="2850019d"/>
    <field name="tcp.nxtseq" showname="Next sequence number: 849    (relative sequence number)" size="0" pos="34" show="849"/>
    <field name="tcp.ack" showname="Acknowledgment number: 331    (relative ack number)" size="4" pos="42" show="331" value="ffe57e78"/>
    <field name="tcp.hdr_len" showname="Header Length: 32 bytes" size="1" pos="46" show="32" value="80"/>
    <field name="tcp.flags" showname="Flags: 0x010 (ACK)" size="2" pos="46" show="0x00000010" value="10" unmaskedvalue="8010">
      <field name="tcp.flags.res" showname="000. .... .... = Reserved: Not set" size="1" pos="46" show="0" value="0" unmaskedvalue="80"/>
      <field name="tcp.flags.ns" showname="...0 .... .... = Nonce: Not set" size="1" pos="46" show="0" value="0" unmaskedvalue="80"/>
      <field name="tcp.flags.cwr" showname=".... 0... .... = Congestion Window Reduced (CWR): Not set" size="1" pos="47" show="0" value="0" unmaskedvalue="10"/>
      <field name="tcp.flags.ecn" showname=".... .0.. .... = ECN-Echo: Not set" size="1" pos="47" show="0" value="0" unmaskedvalue="10"/>
      <field name="tcp.flags.urg" showname=".... ..0. .... = Urgent: Not set" size="1" pos="47" show="0" value="0" unmaskedvalue="10"/>
      <field name="tcp.flags.ack" showname=".... ...1 .... = Acknowledgment: Set" size="1" pos="47" show="1" value="1" unmaskedvalue="10"/>
      <field name="tcp.flags.push" showname=".... .... 0... = Push: Not set" size="1" pos="47" show="0" value="0" unmaskedvalue="10"/>
      <field name="tcp.flags.reset" showname=".... .... .0.. = Reset: Not set" size="1" pos="47" show="0" value="0" unmaskedvalue="10"/>
      <field name="tcp.flags.syn" showname=".... .... ..0. = Syn: Not set" size="1" pos="47" show="0" value="0" unmaskedvalue="10"/>
      <field name="tcp.flags.fin" showname=".... .... ...0 = Fin: Not set" size="1" pos="47" show="0" value="0" unmaskedvalue="10"/>
      <field name="tcp.flags.str" showname="TCP Flags: *******A****" size="2" pos="46" show="*******A****" value="8010"/>
    </field>
    <field name="tcp.window_size_value" showname="Window size value: 70" size="2" pos="48" show="70" value="0046"/>
    <field name="tcp.window_size" showname="Calculated window size: 4480" size="2" pos="48" show="4480" value="0046"/>
    <field name="tcp.window_size_scalefactor" showname="Window size scaling factor: 64" size="2" pos="48" show="64" value="0046"/>
    <field name="tcp.checksum" showname="Checksum: 0xa2b0 [validation disabled]" size="2" pos="50" show="0x0000a2b0" value="a2b0">
      <field name="tcp.checksum_good" showname="Good Checksum: False" size="2" pos="50" show="0" value="a2b0"/>
      <field name="tcp.checksum_bad" showname="Bad Checksum: False" size="2" pos="50" show="0" value="a2b0"/>
    </field>
    <field name="tcp.urgent_pointer" showname="Urgent pointer: 0" size="2" pos="52" show="0" value="0000"/>
    <field name="tcp.options" showname="Options: (12 bytes), No-Operation (NOP), No-Operation (NOP), Timestamps" size="12" pos="54" show="01:01:08:0a:01:3a:a1:ff:0a:fe:fb:68" value="0101080a013aa1ff0afefb68">
      <field name="" show="No-Operation (NOP)" size="1" pos="54" value="01">
        <field name="tcp.options.type" showname="Type: 1" size="1" pos="54" show="1" value="01">
          <field name="tcp.options.type.copy" showname="0... .... = Copy on fragmentation: No" size="1" pos="54" show="0" value="0" unmaskedvalue="01"/>
          <field name="tcp.options.type.class" showname=".00. .... = Class: Control (0)" size="1" pos="54" show="0" value="0" unmaskedvalue="01"/>
          <field name="tcp.options.type.number" showname="...0 0001 = Number: No-Operation (NOP) (1)" size="1" pos="54" show="1" value="1" unmaskedvalue="01"/>
        </field>
      </field>
      <field name="" show="No-Operation (NOP)" size="1" pos="55" value="01">
        <field name="tcp.options.type" showname="Type: 1" size="1" pos="55" show="1" value="01">
          <field name="tcp.options.type.copy" showname="0... .... = Copy on fragmentation: No" size="1" pos="55" show="0" value="0" unmaskedvalue="01"/>
          <field name="tcp.options.type.class" showname=".00. .... = Class: Control (0)" size="1" pos="55" show="0" value="0" unmaskedvalue="01"/>
          <field name="tcp.options.type.number" showname="...0 0001 = Number: No-Operation (NOP) (1)" size="1" pos="55" show="1" value="1" unmaskedvalue="01"/>
        </field>
      </field>
      <field name="" show="Timestamps: TSval 20619775, TSecr 184482664" size="10" pos="56" value="080a013aa1ff0afefb68">
        <field name="tcp.option_kind" showname="Kind: Time Stamp Option (8)" size="1" pos="56" show="8" value="08"/>
        <field name="tcp.option_len" showname="Length: 10" size="1" pos="57" show="10" value="0a"/>
        <field name="tcp.options.timestamp.tsval" showname="Timestamp value: 20619775" size="4" pos="58" show="20619775" value="013aa1ff"/>
        <field name="tcp.options.timestamp.tsecr" showname="Timestamp echo reply: 184482664" size="4" pos="62" show="184482664" value="0afefb68"/>
      </field>
    </field>
    <field name="tcp.analysis" showname="SEQ/ACK analysis" size="0" pos="34" show="" value="">
      <field name="tcp.analysis.initial_rtt" showname="iRTT: 0.190337740 seconds" size="0" pos="34" show="0.190337740"/>
      <field name="tcp.analysis.bytes_in_flight" showname="Bytes in flight: 848" size="0" pos="34" show="848"/>
    </field>
    <field name="tcp.segment_data" showname="TCP segment data (848 bytes)" size="848" pos="66" show="48:54:54:50:2f:31:2e:31:20:32:30:30:20:4f:4b:0d:0a:44:61:74:65:3a:20:53:61:74:2c:20:31:37:20:53:65:70:20:32:30:31:36:20:30:38:3a:30:31:3a:35:38:20:47:4d:54:0d:0a:53:65:72:76:65:72:3a:20:41:70:61:63:68:65:2f:32:2e:32:2e:31:31:20:28:55:6e:69:78:29:20:6d:6f:64:5f:73:73:6c:2f:32:2e:32:2e:31:31:20:4f:70:65:6e:53:53:4c:2f:30:2e:39:2e:38:67:20:50:48:50:2f:35:2e:32:2e:31:30:20:6d:6f:64:5f:70:65:72:6c:2f:32:2e:30:2e:34:20:50:65:72:6c:2f:76:35:2e:31:30:2e:30:0d:0a:4c:61:73:74:2d:4d:6f:64:69:66:69:65:64:3a:20:4d:6f:6e:2c:20:30:32:20:53:65:70:20:32:30:31:33:20:31:30:3a:33:39:3a:32:39:20:47:4d:54:0d:0a:45:54:61:67:3a:20:22:38:31:63:34:39:2d:37:36:64:2d:34:65:35:36:34:32:66:64:37:62:61:34:30:22:2d:67:7a:69:70:0d:0a:41:63:63:65:70:74:2d:52:61:6e:67:65:73:3a:20:62:79:74:65:73:0d:0a:56:61:72:79:3a:20:41:63:63:65:70:74:2d:45:6e:63:6f:64:69:6e:67:0d:0a:43:6f:6e:74:65:6e:74:2d:45:6e:63:6f:64:69:6e:67:3a:20:67:7a:69:70:0d:0a:43:6f:6e:74:65:6e:74:2d:4c:65:6e:67:74:68:3a:20:39:38:36:0d:0a:4b:65:65:70:2d:41:6c:69:76:65:3a:20:74:69:6d:65:6f:75:74:3d:35:2c:20:6d:61:78:3d:31:30:30:0d:0a:43:6f:6e:6e:65:63:74:69:6f:6e:3a:20:4b:65:65:70:2d:41:6c:69:76:65:0d:0a:43:6f:6e:74:65:6e:74:2d:54:79:70:65:3a:20:74:65:78:74:2f:68:74:6d:6c:0d:0a:0d:0a:1f:8b:08:00:00:00:00:00:00:03:a5:55:4d:73:db:36:10:bd:eb:57:6c:30:9e:1c:3a:21:21:ca:c9:8c:ad:50:74:5b:39:d3:78:c6:b1:35:b1:52:a7:a7:0e:44:2e:45:54:20:c1:00:a0:65:f5:d7:77:01:d2:92:d2:a8:a7:9e:44:2d:76:df:7b:fb:81:45:7a:f5:5c:2b:78:42:63:a5:6e:66:2c:89:c7:0c:b0:c9:75:21:9b:f5:8c:dd:3c:dc:47:17:17:ef:2e:a3:84:c1:55:36:4a:5f:5d:df:cf:97:7f:2c:3e:40:e5:28:6a:f1:e5:d7:db:9b:39:b0:88:f3:c7:f3:39:e7:d7:cb:6b:f8:fa:71:f9:e9:16:92:38:e1:fc:c3:1d:03:56:39:d7:4e:39:df:6e:b7:f1:f6:3c:d6:66:cd:97:9f:f9:b3:0f:4f:12:1f:f0:f2:1d:17:ae:60:c4:e0:e5:44:d6:ed:14:da:0a:d1:81:db:b5:38:63:0e:9f:1d:cf:ad:65:50:19:2c:67:8c:e7:dd:4a:e6:71:b0:78:5d:41:0e:45:36:76:76:82:31:b9:bc:bc:ec:79:98:77:9a:2a:e1:73:c3:c6:f3:55:28:0a:fa:a9:d1:09:f0:91:11:7e:eb:e4:d3:8c:cd:75:e3:b0:71:d1:83:97:12:2d:49:05:83:bc:b7:1d:cb:e1:14:ab:64:b3:39:a1:cb:a0:9a:b1:43:26:ec:87:54:28:16:20:75:d2:29:cc:e6:3e:0e:96:28:6a:78:2d:ea:f6:3d:9c:21:de:81:68:0a:d0:ae:42:03:05:d6:1a:6c:8e:0d:7a:5c:e1:b0:00:eb:ba:b2:4c:79:1f:3f:4a:f9:90:c9:4a:17:3b:9f:57:f2:3f:30:29:78:34:4a:3b:15:92:cb:7e:51:0a:52:31:64:b8:16:4a:a1:d9:71:96:f9:70:1b:e0:64:e3:8c:b6:29:17:19:d4:58:af:68:96:40:97:70:9a:be:12:4f:08:b5:28:10:ac:6c:72:04:ea:cd:db:38:e5:44:13:b8:96:15:42:29:6a:dd:d9:03:65:ab:c4:0e:0d:31:de:b7:d8:0c:b0:8b:60:0b:94:02:ea:ce:92:a9:77:83:52:1b:f8:f4:10:5d:df:3f:bc:81" value="485454502f312e3120323030204f4b0d0a446174653a205361742c2031372053657020323031362030383a30313a353820474d540d0a5365727665723a204170616368652f322e322e31312028556e697829206d6f645f73736c2f322e322e3131204f70656e53534c2f302e392e3867205048502f352e322e3130206d6f645f7065726c2f322e302e34205065726c2f76352e31302e300d0a4c6173742d4d6f6469666965643a204d6f6e2c2030322053657020323031332031303a33393a323920474d540d0a455461673a202238316334392d3736642d34653536343266643762613430222d677a69700d0a4163636570742d52616e6765733a2062797465730d0a566172793a204163636570742d456e636f64696e670d0a436f6e74656e742d456e636f64696e673a20677a69700d0a436f6e74656e742d4c656e6774683a203938360d0a4b6565702d416c6976653a2074696d656f75743d352c206d61783d3130300d0a436f6e6e656374696f6e3a204b6565702d416c6976650d0a436f6e74656e742d547970653a20746578742f68746d6c0d0a0d0a1f8b0800000000000003a5554d73db3610bdeb576c309e1c3a2121cac98cad50745b39d378c6b135b152a7a70e442e455420c100a065f5d77701d292d2a8a79e442d76df7bfb81457af55c2b784263a56e662c89c70cb0c975219bf58cdd3cdc471717ef2ea384c155364a5f5ddfcf977f2c3e40e5286af1e5d7db9b39b088f3c7f339e7d7cb6bf8fa71f9e9169238e1fcc31d035639d74e39df6eb7f1f63cd666cd979ff9b30f4f121ff0f21d17ae60c4e0e544d6ed14da0ad181dbb538630e9f1dcfad6550192c678ce7dd4ae671b0785d410e453676768231b9bcbcec7998779a2ae173c3c6f355280afaa9d109f091117eebe4d38ccd75e3b071d18397122d490583bcb71dcbe114ab64b339a1cba09ab14326ec875428162075d229cce63e0e96286a782deaf63d9c21de81680ad0ae420305d61a6c8e0d7a5ce1b000ebbab24c791f3f4af990c94a173b9f57f23f302978344a3b1592cb7e510a523164b8164aa1d97196f9701be064e38cb6291719d458af68964097709abe124f08b52810ac6c7204eacddb38e54413b8961542296addd90365abc40e0d31deb7d80cb08b600b9402eace92a97783521bf8f4105ddf3fbc81"/>
  </proto>
</packet>
<packet>
  <proto name="tcp" showname="Transmission Control Protocol, Src Port: 55394 (55394), Dst Port: 80 (80), Seq: 331, Ack: 849, Len: 0" size="32" pos="34">
    <field name="tcp.srcport" showname="Source Port: 55394" size="2" pos="34" show="55394" value="d862"/>
    <field name="tcp.dstport" showname="Destination Port: 80" size="2" pos="36" show="80" value="0050"/>
    <field name="tcp.port" showname="Source or Destination Port: 55394" hide="yes" size="2" pos="34" show="55394" value="d862"/>
    <field name="tcp.port" showname="Source or Destination Port: 80" hide="yes" size="2" pos="36" show="80" value="0050"/>
    <field name="tcp.stream" showname="Stream index: 11" size="0" pos="34" show="11"/>
    <field name="tcp.len" showname="TCP Segment Len: 0" size="1" pos="46" show="0" value="80"/>
    <field name="tcp.seq" showname="Sequence number: 331    (relative sequence number)" size="4" pos="38" show="331" value="ffe57e78"/>
    <field name="tcp.ack" showname="Acknowledgment number: 849    (relative ack number)" size="4" pos="42" show="849" value="285004ed"/>
    <field name="tcp.hdr_len" showname="Header Length: 32 bytes" size="1" pos="46" show="32" value="80"/>
    <field name="tcp.flags" showname="Flags: 0x010 (ACK)" size="2" pos="46" show="0x00000010" value="10" unmaskedvalue="8010">
      <field name="tcp.flags.res" showname="000. .... .... = Reserved: Not set" size="1" pos="46" show="0" value="0" unmaskedvalue="80"/>
      <field name="tcp.flags.ns" showname="...0 .... .... = Nonce: Not set" size="1" pos="46" show="0" value="0" unmaskedvalue="80"/>
      <field name="tcp.flags.cwr" showname=".... 0... .... = Congestion Window Reduced (CWR): Not set" size="1" pos="47" show="0" value="0" unmaskedvalue="10"/>
      <field name="tcp.flags.ecn" showname=".... .0.. .... = ECN-Echo: Not set" size="1" pos="47" show="0" value="0" unmaskedvalue="10"/>
      <field name="tcp.flags.urg" showname=".... ..0. .... = Urgent: Not set" size="1" pos="47" show="0" value="0" unmaskedvalue="10"/>
      <field name="tcp.flags.ack" showname=".... ...1 .... = Acknowledgment: Set" size="1" pos="47" show="1" value="1" unmaskedvalue="10"/>
      <field name="tcp.flags.push" showname=".... .... 0... = Push: Not set" size="1" pos="47" show="0" value="0" unmaskedvalue="10"/>
      <field name="tcp.flags.reset" showname=".... .... .0.. = Reset: Not set" size="1" pos="47" show="0" value="0" unmaskedvalue="10"/>
      <field name="tcp.flags.syn" showname=".... .... ..0. = Syn: Not set" size="1" pos="47" show="0" value="0" unmaskedvalue="10"/>
      <field name="tcp.flags.fin" showname=".... .... ...0 = Fin: Not set" size="1" pos="47" show="0" value="0" unmaskedvalue="10"/>
      <field name="tcp.flags.str" showname="TCP Flags: *******A****" size="2" pos="46" show="*******A****" value="8010"/>
    </field>
    <field name="tcp.window_size_value" showname="Window size value: 242" size="2" pos="48" show="242" value="00f2"/>
    <field name="tcp.window_size" showname="Calculated window size: 30976" size="2" pos="48" show="30976" value="00f2"/>
    <field name="tcp.window_size_scalefactor" showname="Window size scaling factor: 128" size="2" pos="48" show="128" value="00f2"/>
    <field name="tcp.checksum" showname="Checksum: 0x317c [validation disabled]" size="2" pos="50" show="0x0000317c" value="317c">
      <field name="tcp.checksum_good" showname="Good Checksum: False" size="2" pos="50" show="0" value="317c"/>
      <field name="tcp.checksum_bad" showname="Bad Checksum: False" size="2" pos="50" show="0" value="317c"/>
    </field>
    <field name="tcp.urgent_pointer" showname="Urgent pointer: 0" size="2" pos="52" show="0" value="0000"/>
    <field name="tcp.options" showname="Options: (12 bytes), No-Operation (NOP), No-Operation (NOP), Timestamps" size="12" pos="54" show="01:01:08:0a:0a:fe:fc:2d:01:3a:a1:ff" value="0101080a0afefc2d013aa1ff">
      <field name="" show="No-Operation (NOP)" size="1" pos="54" value="01">
        <field name="tcp.options.type" showname="Type: 1" size="1" pos="54" show="1" value="01">
          <field name="tcp.options.type.copy" showname="0... .... = Copy on fragmentation: No" size="1" pos="54" show="0" value="0" unmaskedvalue="01"/>
          <field name="tcp.options.type.class" showname=".00. .... = Class: Control (0)" size="1" pos="54" show="0" value="0" unmaskedvalue="01"/>
          <field name="tcp.options.type.number" showname="...0 0001 = Number: No-Operation (NOP) (1)" size="1" pos="54" show="1" value="1" unmaskedvalue="01"/>
        </field>
      </field>
      <field name="" show="No-Operation (NOP)" size="1" pos="55" value="01">
        <field name="tcp.options.type" showname="Type: 1" size="1" pos="55" show="1" value="01">
          <field name="tcp.options.type.copy" showname="0... .... = Copy on fragmentation: No" size="1" pos="55" show="0" value="0" unmaskedvalue="01"/>
          <field name="tcp.options.type.class" showname=".00. .... = Class: Control (0)" size="1" pos="55" show="0" value="0" unmaskedvalue="01"/>
          <field name="tcp.options.type.number" showname="...0 0001 = Number: No-Operation (NOP) (1)" size="1" pos="55" show="1" value="1" unmaskedvalue="01"/>
        </field>
      </field>
      <field name="" show="Timestamps: TSval 184482861, TSecr 20619775" size="10" pos="56" value="080a0afefc2d013aa1ff">
        <field name="tcp.option_kind" showname="Kind: Time Stamp Option (8)" size="1" pos="56" show="8" value="08"/>
        <field name="tcp.option_len" showname="Length: 10" size="1" pos="57" show="10" value="0a"/>
        <field name="tcp.options.timestamp.tsval" showname="Timestamp value: 184482861" size="4" pos="58" show="184482861" value="0afefc2d"/>
        <field name="tcp.options.timestamp.tsecr" showname="Timestamp echo reply: 20619775" size="4" pos="62" show="20619775" value="013aa1ff"/>
      </field>
    </field>
    <field name="tcp.analysis" showname="SEQ/ACK analysis" size="0" pos="34" show="" value="">
      <field name="tcp.analysis.acks_frame" showname="This is an ACK to the segment in frame: 772" size="0" pos="34" show="772"/>
      <field name="tcp.analysis.ack_rtt" showname="The RTT to ACK the segment was: 0.000024398 seconds" size="0" pos="34" show="0.000024398"/>
      <field name="tcp.analysis.initial_rtt" showname="iRTT: 0.190337740 seconds" size="0" pos="34" show="0.190337740"/>
    </field>
  </proto>
</packet>
<packet>
  <proto name="tcp" showname="Transmission Control Protocol, Src Port: 80 (80), Dst Port: 55394 (55394), Seq: 849, Ack: 331, Len: 548" size="32" pos="34">
    <field name="tcp.srcport" showname="Source Port: 80" size="2" pos="34" show="80" value="0050"/>
    <field name="tcp.dstport" showname="Destination Port: 55394" size="2" pos="36" show="55394" value="d862"/>
    <field name="tcp.port" showname="Source or Destination Port: 80" hide="yes" size="2" pos="34" show="80" value="0050"/>
    <field name="tcp.port" showname="Source or Destination Port: 55394" hide="yes" size="2" pos="36" show="55394" value="d862"/>
    <field name="tcp.stream" showname="Stream index: 11" size="0" pos="34" show="11"/>
    <field name="tcp.len" showname="TCP Segment Len: 548" size="1" pos="46" show="548" value="80"/>
    <field name="tcp.seq" showname="Sequence number: 849    (relative sequence number)" size="4" pos="38" show="849" value="285004ed"/>
    <field name="tcp.nxtseq" showname="Next sequence number: 1397    (relative sequence number)" size="0" pos="34" show="1397"/>
    <field name="tcp.ack" showname="Acknowledgment number: 331    (relative ack number)" size="4" pos="42" show="331" value="ffe57e78"/>
    <field name="tcp.hdr_len" showname="Header Length: 32 bytes" size="1" pos="46" show="32" value="80"/>
    <field name="tcp.flags" showname="Flags: 0x018 (PSH, ACK)" size="2" pos="46" show="0x00000018" value="18" unmaskedvalue="8018">
      <field name="tcp.flags.res" showname="000. .... .... = Reserved: Not set" size="1" pos="46" show="0" value="0" unmaskedvalue="80"/>
      <field name="tcp.flags.ns" showname="...0 .... .... = Nonce: Not set" size="1" pos="46" show="0" value="0" unmaskedvalue="80"/>
      <field name="tcp.flags.cwr" showname=".... 0... .... = Congestion Window Reduced (CWR): Not set" size="1" pos="47" show="0" value="0" unmaskedvalue="18"/>
      <field name="tcp.flags.ecn" showname=".... .0.. .... = ECN-Echo: Not set" size="1" pos="47" show="0" value="0" unmaskedvalue="18"/>
      <field name="tcp.flags.urg" showname=".... ..0. .... = Urgent: Not set" size="1" pos="47" show="0" value="0" unmaskedvalue="18"/>
      <field name="tcp.flags.ack" showname=".... ...1 .... = Acknowledgment: Set" size="1" pos="47" show="1" value="1" unmaskedvalue="18"/>
      <field name="tcp.flags.push" showname=".... .... 1... = Push: Set" size="1" pos="47" show="1" value="1" unmaskedvalue="18"/>
      <field name="tcp.flags.reset" showname=".... .... .0.. = Reset: Not set" size="1" pos="47" show="0" value="0" unmaskedvalue="18"/>
      <field name="tcp.flags.syn" showname=".... .... ..0. = Syn: Not set" size="1" pos="47" show="0" value="0" unmaskedvalue="18"/>
      <field name="tcp.flags.fin" showname=".... .... ...0 = Fin: Not set" size="1" pos="47" show="0" value="0" unmaskedvalue="18"/>
      <field name="tcp.flags.str" showname="TCP Flags: *******AP***" size="2" pos="46" show="*******AP***" value="8018"/>
    </field>
    <field name="tcp.window_size_value" showname="Window size value: 70" size="2" pos="48" show="70" value="0046"/>
    <field name="tcp.window_size" showname="Calculated window size: 4480" size="2" pos="48" show="4480" value="0046"/>
    <field name="tcp.window_size_scalefactor" showname="Window size scaling factor: 64" size="2" pos="48" show="64" value="0046"/>
    <field name="tcp.checksum" showname="Checksum: 0x07d7 [validation disabled]" size="2" pos="50" show="0x000007d7" value="07d7">
      <field name="tcp.checksum_good" showname="Good Checksum: False" size="2" pos="50" show="0" value="07d7"/>
      <field name="tcp.checksum_bad" showname="Bad Checksum: False" size="2" pos="50" show="0" value="07d7"/>
    </field>
    <field name="tcp.urgent_pointer" showname="Urgent pointer: 0" size="2" pos="52" show="0" value="0000"/>
    <field name="tcp.options" showname="Options: (12 bytes), No-Operation (NOP), No-Operation (NOP), Timestamps" size="12" pos="54" show="01:01:08:0a:01:3a:a1:ff:0a:fe:fb:68" value="0101080a013aa1ff0afefb68">
      <field name="" show="No-Operation (NOP)" size="1" pos="54" value="01">
        <field name="tcp.options.type" showname="Type: 1" size="1" pos="54" show="1" value="01">
          <field name="tcp.options.type.copy" showname="0... .... = Copy on fragmentation: No" size="1" pos="54" show="0" value="0" unmaskedvalue="01"/>
          <field name="tcp.options.type.class" showname=".00. .... = Class: Control (0)" size="1" pos="54" show="0" value="0" unmaskedvalue="01"/>
          <field name="tcp.options.type.number" showname="...0 0001 = Number: No-Operation (NOP) (1)" size="1" pos="54" show="1" value="1" unmaskedvalue="01"/>
        </field>
      </field>
      <field name="" show="No-Operation (NOP)" size="1" pos="55" value="01">
        <field name="tcp.options.type" showname="Type: 1" size="1" pos="55" show="1" value="01">
          <field name="tcp.options.type.copy" showname="0... .... = Copy on fragmentation: No" size="1" pos="55" show="0" value="0" unmaskedvalue="01"/>
          <field name="tcp.options.type.class" showname=".00. .... = Class: Control (0)" size="1" pos="55" show="0" value="0" unmaskedvalue="01"/>
          <field name="tcp.options.type.number" showname="...0 0001 = Number: No-Operation (NOP) (1)" size="1" pos="55" show="1" value="1" unmaskedvalue="01"/>
        </field>
      </field>
      <field name="" show="Timestamps: TSval 20619775, TSecr 184482664" size="10" pos="56" value="080a013aa1ff0afefb68">
        <field name="tcp.option_kind" showname="Kind: Time Stamp Option (8)" size="1" pos="56" show="8" value="08"/>
        <field name="tcp.option_len" showname="Length: 10" size="1" pos="57" show="10" value="0a"/>
        <field name="tcp.options.timestamp.tsval" showname="Timestamp value: 20619775" size="4" pos="58" show="20619775" value="013aa1ff"/>
        <field name="tcp.options.timestamp.tsecr" showname="Timestamp echo reply: 184482664" size="4" pos="62" show="184482664" value="0afefb68"/>
      </field>
    </field>
    <field name="tcp.analysis" showname="SEQ/ACK analysis" size="0" pos="34" show="" value="">
      <field name="tcp.analysis.initial_rtt" showname="iRTT: 0.190337740 seconds" size="0" pos="34" show="0.190337740"/>
      <field name="tcp.analysis.bytes_in_flight" showname="Bytes in flight: 548" size="0" pos="34" show="548"/>
    </field>
    <field name="tcp.segment_data" showname="TCP segment data (548 bytes)" size="548" pos="66" show="47:d9:14:7a:6b:e1:f2:39:e8:bc:95:4d:f7:cc:bf:dc:fd:f4:f5:88:f1:bb:ec:ac:ee:4c:8e:36:0e:b3:92:3d:84:7f:30:d7:05:f6:d9:b9:4a:38:d8:a2:09:05:43:61:a9:62:ab:dd:e9:9c:ff:95:93:92:d6:79:87:bc:33:86:46:28:c8:21:a5:35:09:de:93:53:de:52:f9:ca:0e:80:9e:f2:bf:84:8a:ae:90:da:bb:86:d4:73:5d:b7:7a:50:53:e8:bf:82:d6:7d:79:cf:8f:31:c8:95:fa:97:3b:ba:ec:5e:ce:1e:af:d0:b9:25:38:87:79:d5:c8:5c:28:68:45:3b:48:80:ad:91:8e:e6:de:83:db:6e:55:4b:6b:e5:13:1e:81:ee:41:0c:b6:da:b8:97:ea:2d:84:71:3b:18:6c:01:c8:b7:a6:90:65:89:a1:04:61:fc:5a:72:92:54:f0:03:da:47:5d:63:2b:d6:e8:e5:51:fd:41:94:a5:54:32:4c:67:88:58:1b:dd:b5:07:e1:4e:b7:b9:c1:2d:69:5f:ea:c5:fc:33:3e:7a:a6:01:8d:fb:09:1e:a5:6d:76:53:c2:4e:77:b0:15:44:eb:34:94:d2:df:81:8e:5a:e9:fb:49:77:e1:f8:2a:90:46:5f:ce:ce:0d:37:84:46:dc:e0:48:ac:c8:ff:0d:38:b1:41:1a:38:a5:f5:06:84:1b:ed:55:1c:ed:9c:10:e3:91:62:d9:94:fa:e5:9e:ec:0d:43:53:5b:2f:cc:0f:00:88:d0:8c:ef:20:d6:5a:af:15:c6:24:83:5b:14:26:af:18:cd:98:ab:74:41:d7:8f:16:49:e6:53:ea:0f:48:bc:b4:d4:6a:87:53:48:65:43:aa:a1:11:35:6d:19:61:ff:fc:c6:e8:e0:6f:fa:9e:8c:fb:3d:d5:9f:f7:5b:a8:92:45:41:0b:f0:e0:ed:31:5e:c8:9e:84:ea:c8:ea:a5:f4:fb:8c:96:a8:87:08:b2:53:ee:65:7b:f9:95:e1:41:ca:28:b5:35:6d:85:ec:ec:5a:78:1d:93:71:32:8e:92:49:34:99:c0:38:99:be:7d:37:a5:8f:33:78:9d:eb:76:f7:de:cf:d0:be:68:b5:90:ca:e9:29:0d:ec:cf:07:9a:6c:98:df:94:f7:a0:3f:d4:98:c4:c9:42:38:6d:5e:b6:7b:5e:61:be:b9:ea:8c:9c:91:1b:8d:96:61:59:2a:eb:35:58:93:9f:7a:0c:6e:68:8b:db:1e:25:1a:de:1e:06:42:d1:56:ff:dd:db:0e:0f:d8:2b:7a:6c:50:ae:2b:3a:39:27:97:ad:2c:5c:35:63:17:17:7d:25:84:af:c0:7e:29:62:bc:f1:23:ff:1b:ea:9b:45:38:1b:3a:cc:87:6d:cc:3d:51:36:fa:07:98:b2:0d:78:6d:07:00:00" value="47d9147a6be1f239e8bc954df7ccbfdcfdf4f588f1bbecacee4c8e360eb3923d847f30d705f6d9b94a38d8a209054361a962abdde99cff959392d67987bc33864628c821a53509de9353de52f9ca0e809ef2bf848aae90dabb86d4735db77a5053e8bf82d67d79cf8f31c895fa973bbaec5ece1eafd0b925388779d5c85c2868453b4880ad918ee6de83db6e554b6be5131e81ee410cb6dab897ea2d84713b186c01c8b7a6906589a10461fc5a729254f003da475d632bd6e8e551fd4194a554324c6788581bddb507e14eb7b9c12d695feac5fc333e7aa6018dfb091ea56d7653c24e77b01544eb3494d2df818e5ae9fb4977e1f82a90465fcece0d378446dce048acc8ff0d38b1411a38a5f506841bed551ced9c10e39162d994fae59eec0d43535b2fcc0f0088d08cef20d65aaf15c624835b1426af18cd98ab7441d78f1649e653ea0f48bcb4d46a8753486543aaa111356d1961fffcc6e8e06ffa9e8cfb3dd59ff75ba89245410bf0e0ed315ec89e84eac8eaa5f4fb8c96a88708b253ee657bf995e141ca28b5356d85ecec5a781d9371328e92493499c03899be7d37a58f33789deb76f7decfd0be68b590cae9290deccf079a6c98df94f7a03fd498c4c942386d5eb67b5e61beb9ea8c9c911b8d9661592aeb3558939f7a0c6e688bdb1e251ade1e0642d156ffdddb0e0fd82b7a6c50ae2b3a392797ad2c5c356317177d2584afc07e2962bcf123ff1bea9b45381b3acc876dcc3d5136fa0798b20d786d070000"/>
  </proto>
</packet>
<packet>
  <proto name="tcp" showname="Transmission Control Protocol, Src Port: 55394 (55394), Dst Port: 80 (80), Seq: 331, Ack: 1397, Len: 0" size="32" pos="34">
    <field name="tcp.srcport" showname="Source Port: 55394" size="2" pos="34" show="55394" value="d862"/>
    <field name="tcp.dstport" showname="Destination Port: 80" size="2" pos="36" show="80" value="0050"/>
    <field name="tcp.port" showname="Source or Destination Port: 55394" hide="yes" size="2" pos="34" show="55394" value="d862"/>
    <field name="tcp.port" showname="Source or Destination Port: 80" hide="yes" size="2" pos="36" show="80" value="0050"/>
    <field name="tcp.stream" showname="Stream index: 11" size="0" pos="34" show="11"/>
    <field name="tcp.len" showname="TCP Segment Len: 0" size="1" pos="46" show="0" value="80"/>
    <field name="tcp.seq" showname="Sequence number: 331    (relative sequence number)" size="4" pos="38" show="331" value="ffe57e78"/>
    <field name="tcp.ack" showname="Acknowledgment number: 1397    (relative ack number)" size="4" pos="42" show="1397" value="28500711"/>
    <field name="tcp.hdr_len" showname="Header Length: 32 bytes" size="1" pos="46" show="32" value="80"/>
    <field name="tcp.flags" showname="Flags: 0x010 (ACK)" size="2" pos="46" show="0x00000010" value="10" unmaskedvalue="8010">
      <field name="tcp.flags.res" showname="000. .... .... = Reserved: Not set" size="1" pos="46" show="0" value="0" unmaskedvalue="80"/>
      <field name="tcp.flags.ns" showname="...0 .... .... = Nonce: Not set" size="1" pos="46" show="0" value="0" unmaskedvalue="80"/>
      <field name="tcp.flags.cwr" showname=".... 0... .... = Congestion Window Reduced (CWR): Not set" size="1" pos="47" show="0" value="0" unmaskedvalue="10"/>
      <field name="tcp.flags.ecn" showname=".... .0.. .... = ECN-Echo: Not set" size="1" pos="47" show="0" value="0" unmaskedvalue="10"/>
      <field name="tcp.flags.urg" showname=".... ..0. .... = Urgent: Not set" size="1" pos="47" show="0" value="0" unmaskedvalue="10"/>
      <field name="tcp.flags.ack" showname=".... ...1 .... = Acknowledgment: Set" size="1" pos="47" show="1" value="1" unmaskedvalue="10"/>
      <field name="tcp.flags.push" showname=".... .... 0... = Push: Not set" size="1" pos="47" show="0" value="0" unmaskedvalue="10"/>
      <field name="tcp.flags.reset" showname=".... .... .0.. = Reset: Not set" size="1" pos="47" show="0" value="0" unmaskedvalue="10"/>
      <field name="tcp.flags.syn" showname=".... .... ..0. = Syn: Not set" size="1" pos="47" show="0" value="0" unmaskedvalue="10"/>
      <field name="tcp.flags.fin" showname=".... .... ...0 = Fin: Not set" size="1" pos="47" show="0" value="0" unmaskedvalue="10"/>
      <field name="tcp.flags.str" showname="TCP Flags: *******A****" size="2" pos="46" show="*******A****" value="8010"/>
    </field>
    <field name="tcp.window_size_value" showname="Window size value: 255" size="2" pos="48" show="255" value="00ff"/>
    <field name="tcp.window_size" showname="Calculated window size: 32640" size="2" pos="48" show="32640" value="00ff"/>
    <field name="tcp.window_size_scalefactor" showname="Window size scaling factor: 128" size="2" pos="48" show="128" value="00ff"/>
    <field name="tcp.checksum" showname="Checksum: 0x2f4b [validation disabled]" size="2" pos="50" show="0x00002f4b" value="2f4b">
      <field name="tcp.checksum_good" showname="Good Checksum: False" size="2" pos="50" show="0" value="2f4b"/>
      <field name="tcp.checksum_bad" showname="Bad Checksum: False" size="2" pos="50" show="0" value="2f4b"/>
    </field>
    <field name="tcp.urgent_pointer" showname="Urgent pointer: 0" size="2" pos="52" show="0" value="0000"/>
    <field name="tcp.options" showname="Options: (12 bytes), No-Operation (NOP), No-Operation (NOP), Timestamps" size="12" pos="54" show="01:01:08:0a:0a:fe:fc:2d:01:3a:a1:ff" value="0101080a0afefc2d013aa1ff">
      <field name="" show="No-Operation (NOP)" size="1" pos="54" value="01">
        <field name="tcp.options.type" showname="Type: 1" size="1" pos="54" show="1" value="01">
          <field name="tcp.options.type.copy" showname="0... .... = Copy on fragmentation: No" size="1" pos="54" show="0" value="0" unmaskedvalue="01"/>
          <field name="tcp.options.type.class" showname=".00. .... = Class: Control (0)" size="1" pos="54" show="0" value="0" unmaskedvalue="01"/>
          <field name="tcp.options.type.number" showname="...0 0001 = Number: No-Operation (NOP) (1)" size="1" pos="54" show="1" value="1" unmaskedvalue="01"/>
        </field>
      </field>
      <field name="" show="No-Operation (NOP)" size="1" pos="55" value="01">
        <field name="tcp.options.type" showname="Type: 1" size="1" pos="55" show="1" value="01">
          <field name="tcp.options.type.copy" showname="0... .... = Copy on fragmentation: No" size="1" pos="55" show="0" value="0" unmaskedvalue="01"/>
          <field name="tcp.options.type.class" showname=".00. .... = Class: Control (0)" size="1" pos="55" show="0" value="0" unmaskedvalue="01"/>
          <field name="tcp.options.type.number" showname="...0 0001 = Number: No-Operation (NOP) (1)" size="1" pos="55" show="1" value="1" unmaskedvalue="01"/>
        </field>
      </field>
      <field name="" show="Timestamps: TSval 184482861, TSecr 20619775" size="10" pos="56" value="080a0afefc2d013aa1ff">
        <field name="tcp.option_kind" showname="Kind: Time Stamp Option (8)" size="1" pos="56" show="8" value="08"/>
        <field name="tcp.option_len" showname="Length: 10" size="1" pos="57" show="10" value="0a"/>
        <field name="tcp.options.timestamp.tsval" showname="Timestamp value: 184482861" size="4" pos="58" show="184482861" value="0afefc2d"/>
        <field name="tcp.options.timestamp.tsecr" showname="Timestamp echo reply: 20619775" size="4" pos="62" show="20619775" value="013aa1ff"/>
      </field>
    </field>
    <field name="tcp.analysis" showname="SEQ/ACK analysis" size="0" pos="34" show="" value="">
      <field name="tcp.analysis.acks_frame" showname="This is an ACK to the segment in frame: 774" size="0" pos="34" show="774"/>
      <field name="tcp.analysis.ack_rtt" showname="The RTT to ACK the segment was: 0.000013679 seconds" size="0" pos="34" show="0.000013679"/>
      <field name="tcp.analysis.initial_rtt" showname="iRTT: 0.190337740 seconds" size="0" pos="34" show="0.190337740"/>
    </field>
  </proto>
</packet>
<packet>
  <proto name="tcp" showname="Transmission Control Protocol, Src Port: 55394 (55394), Dst Port: 80 (80), Seq: 331, Ack: 1397, Len: 322" size="32" pos="34">
    <field name="tcp.srcport" showname="Source Port: 55394" size="2" pos="34" show="55394" value="d862"/>
    <field name="tcp.dstport" showname="Destination Port: 80" size="2" pos="36" show="80" value="0050"/>
    <field name="tcp.port" showname="Source or Destination Port: 55394" hide="yes" size="2" pos="34" show="55394" value="d862"/>
    <field name="tcp.port" showname="Source or Destination Port: 80" hide="yes" size="2" pos="36" show="80" value="0050"/>
    <field name="tcp.stream" showname="Stream index: 11" size="0" pos="34" show="11"/>
    <field name="tcp.len" showname="TCP Segment Len: 322" size="1" pos="46" show="322" value="80"/>
    <field name="tcp.seq" showname="Sequence number: 331    (relative sequence number)" size="4" pos="38" show="331" value="ffe57e78"/>
    <field name="tcp.nxtseq" showname="Next sequence number: 653    (relative sequence number)" size="0" pos="34" show="653"/>
    <field name="tcp.ack" showname="Acknowledgment number: 1397    (relative ack number)" size="4" pos="42" show="1397" value="28500711"/>
    <field name="tcp.hdr_len" showname="Header Length: 32 bytes" size="1" pos="46" show="32" value="80"/>
    <field name="tcp.flags" showname="Flags: 0x018 (PSH, ACK)" size="2" pos="46" show="0x00000018" value="18" unmaskedvalue="8018">
      <field name="tcp.flags.res" showname="000. .... .... = Reserved: Not set" size="1" pos="46" show="0" value="0" unmaskedvalue="80"/>
      <field name="tcp.flags.ns" showname="...0 .... .... = Nonce: Not set" size="1" pos="46" show="0" value="0" unmaskedvalue="80"/>
      <field name="tcp.flags.cwr" showname=".... 0... .... = Congestion Window Reduced (CWR): Not set" size="1" pos="47" show="0" value="0" unmaskedvalue="18"/>
      <field name="tcp.flags.ecn" showname=".... .0.. .... = ECN-Echo: Not set" size="1" pos="47" show="0" value="0" unmaskedvalue="18"/>
      <field name="tcp.flags.urg" showname=".... ..0. .... = Urgent: Not set" size="1" pos="47" show="0" value="0" unmaskedvalue="18"/>
      <field name="tcp.flags.ack" showname=".... ...1 .... = Acknowledgment: Set" size="1" pos="47" show="1" value="1" unmaskedvalue="18"/>
      <field name="tcp.flags.push" showname=".... .... 1... = Push: Set" size="1" pos="47" show="1" value="1" unmaskedvalue="18"/>
      <field name="tcp.flags.reset" showname=".... .... .0.. = Reset: Not set" size="1" pos="47" show="0" value="0" unmaskedvalue="18"/>
      <field name="tcp.flags.syn" showname=".... .... ..0. = Syn: Not set" size="1" pos="47" show="0" value="0" unmaskedvalue="18"/>
      <field name="tcp.flags.fin" showname=".... .... ...0 = Fin: Not set" size="1" pos="47" show="0" value="0" unmaskedvalue="18"/>
      <field name="tcp.flags.str" showname="TCP Flags: *******AP***" size="2" pos="46" show="*******AP***" value="8018"/>
    </field>
    <field name="tcp.window_size_value" showname="Window size value: 255" size="2" pos="48" show="255" value="00ff"/>
    <field name="tcp.window_size" showname="Calculated window size: 32640" size="2" pos="48" show="32640" value="00ff"/>
    <field name="tcp.window_size_scalefactor" showname="Window size scaling factor: 128" size="2" pos="48" show="128" value="00ff"/>
    <field name="tcp.checksum" showname="Checksum: 0x2346 [validation disabled]" size="2" pos="50" show="0x00002346" value="2346">
      <field name="tcp.checksum_good" showname="Good Checksum: False" size="2" pos="50" show="0" value="2346"/>
      <field name="tcp.checksum_bad" showname="Bad Checksum: False" size="2" pos="50" show="0" value="2346"/>
    </field>
    <field name="tcp.urgent_pointer" showname="Urgent pointer: 0" size="2" pos="52" show="0" value="0000"/>
    <field name="tcp.options" showname="Options: (12 bytes), No-Operation (NOP), No-Operation (NOP), Timestamps" size="12" pos="54" show="01:01:08:0a:0a:fe:fc:6a:01:3a:a1:ff" value="0101080a0afefc6a013aa1ff">
      <field name="" show="No-Operation (NOP)" size="1" pos="54" value="01">
        <field name="tcp.options.type" showname="Type: 1" size="1" pos="54" show="1" value="01">
          <field name="tcp.options.type.copy" showname="0... .... = Copy on fragmentation: No" size="1" pos="54" show="0" value="0" unmaskedvalue="01"/>
          <field name="tcp.options.type.class" showname=".00. .... = Class: Control (0)" size="1" pos="54" show="0" value="0" unmaskedvalue="01"/>
          <field name="tcp.options.type.number" showname="...0 0001 = Number: No-Operation (NOP) (1)" size="1" pos="54" show="1" value="1" unmaskedvalue="01"/>
        </field>
      </field>
      <field name="" show="No-Operation (NOP)" size="1" pos="55" value="01">
        <field name="tcp.options.type" showname="Type: 1" size="1" pos="55" show="1" value="01">
          <field name="tcp.options.type.copy" showname="0... .... = Copy on fragmentation: No" size="1" pos="55" show="0" value="0" unmaskedvalue="01"/>
          <field name="tcp.options.type.class" showname=".00. .... = Class: Control (0)" size="1" pos="55" show="0" value="0" unmaskedvalue="01"/>
          <field name="tcp.options.type.number" showname="...0 0001 = Number: No-Operation (NOP) (1)" size="1" pos="55" show="1" value="1" unmaskedvalue="01"/>
        </field>
      </field>
      <field name="" show="Timestamps: TSval 184482922, TSecr 20619775" size="10" pos="56" value="080a0afefc6a013aa1ff">
        <field name="tcp.option_kind" showname="Kind: Time Stamp Option (8)" size="1" pos="56" show="8" value="08"/>
        <field name="tcp.option_len" showname="Length: 10" size="1" pos="57" show="10" value="0a"/>
        <field name="tcp.options.timestamp.tsval" showname="Timestamp value: 184482922" size="4" pos="58" show="184482922" value="0afefc6a"/>
        <field name="tcp.options.timestamp.tsecr" showname="Timestamp echo reply: 20619775" size="4" pos="62" show="20619775" value="013aa1ff"/>
      </field>
    </field>
    <field name="tcp.analysis" showname="SEQ/ACK analysis" size="0" pos="34" show="" value="">
      <field name="tcp.analysis.initial_rtt" showname="iRTT: 0.190337740 seconds" size="0" pos="34" show="0.190337740"/>
      <field name="tcp.analysis.bytes_in_flight" showname="Bytes in flight: 322" size="0" pos="34" show="322"/>
    </field>
  </proto>
</packet>
<packet>
  <proto name="tcp" showname="Transmission Control Protocol, Src Port: 80 (80), Dst Port: 55394 (55394), Seq: 1397, Ack: 653, Len: 422" size="32" pos="34">
    <field name="tcp.srcport" showname="Source Port: 80" size="2" pos="34" show="80" value="0050"/>
    <field name="tcp.dstport" showname="Destination Port: 55394" size="2" pos="36" show="55394" value="d862"/>
    <field name="tcp.port" showname="Source or Destination Port: 80" hide="yes" size="2" pos="34" show="80" value="0050"/>
    <field name="tcp.port" showname="Source or Destination Port: 55394" hide="yes" size="2" pos="36" show="55394" value="d862"/>
    <field name="tcp.stream" showname="Stream index: 11" size="0" pos="34" show="11"/>
    <field name="tcp.len" showname="TCP Segment Len: 422" size="1" pos="46" show="422" value="80"/>
    <field name="tcp.seq" showname="Sequence number: 1397    (relative sequence number)" size="4" pos="38" show="1397" value="28500711"/>
    <field name="tcp.nxtseq" showname="Next sequence number: 1819    (relative sequence number)" size="0" pos="34" show="1819"/>
    <field name="tcp.ack" showname="Acknowledgment number: 653    (relative ack number)" size="4" pos="42" show="653" value="ffe57fba"/>
    <field name="tcp.hdr_len" showname="Header Length: 32 bytes" size="1" pos="46" show="32" value="80"/>
    <field name="tcp.flags" showname="Flags: 0x018 (PSH, ACK)" size="2" pos="46" show="0x00000018" value="18" unmaskedvalue="8018">
      <field name="tcp.flags.res" showname="000. .... .... = Reserved: Not set" size="1" pos="46" show="0" value="0" unmaskedvalue="80"/>
      <field name="tcp.flags.ns" showname="...0 .... .... = Nonce: Not set" size="1" pos="46" show="0" value="0" unmaskedvalue="80"/>
      <field name="tcp.flags.cwr" showname=".... 0... .... = Congestion Window Reduced (CWR): Not set" size="1" pos="47" show="0" value="0" unmaskedvalue="18"/>
      <field name="tcp.flags.ecn" showname=".... .0.. .... = ECN-Echo: Not set" size="1" pos="47" show="0" value="0" unmaskedvalue="18"/>
      <field name="tcp.flags.urg" showname=".... ..0. .... = Urgent: Not set" size="1" pos="47" show="0" value="0" unmaskedvalue="18"/>
      <field name="tcp.flags.ack" showname=".... ...1 .... = Acknowledgment: Set" size="1" pos="47" show="1" value="1" unmaskedvalue="18"/>
      <field name="tcp.flags.push" showname=".... .... 1... = Push: Set" size="1" pos="47" show="1" value="1" unmaskedvalue="18"/>
      <field name="tcp.flags.reset" showname=".... .... .0.. = Reset: Not set" size="1" pos="47" show="0" value="0" unmaskedvalue="18"/>
      <field name="tcp.flags.syn" showname=".... .... ..0. = Syn: Not set" size="1" pos="47" show="0" value="0" unmaskedvalue="18"/>
      <field name="tcp.flags.fin" showname=".... .... ...0 = Fin: Not set" size="1" pos="47" show="0" value="0" unmaskedvalue="18"/>
      <field name="tcp.flags.str" showname="TCP Flags: *******AP***" size="2" pos="46" show="*******AP***" value="8018"/>
    </field>
    <field name="tcp.window_size_value" showname="Window size value: 87" size="2" pos="48" show="87" value="0057"/>
    <field name="tcp.window_size" showname="Calculated window size: 5568" size="2" pos="48" show="5568" value="0057"/>
    <field name="tcp.window_size_scalefactor" showname="Window size scaling factor: 64" size="2" pos="48" show="64" value="0057"/>
    <field name="tcp.checksum" showname="Checksum: 0xb890 [validation disabled]" size="2" pos="50" show="0x0000b890" value="b890">
      <field name="tcp.checksum_good" showname="Good Checksum: False" size="2" pos="50" show="0" value="b890"/>
      <field name="tcp.checksum_bad" showname="Bad Checksum: False" size="2" pos="50" show="0" value="b890"/>
    </field>
    <field name="tcp.urgent_pointer" showname="Urgent pointer: 0" size="2" pos="52" show="0" value="0000"/>
    <field name="tcp.options" showname="Options: (12 bytes), No-Operation (NOP), No-Operation (NOP), Timestamps" size="12" pos="54" show="01:01:08:0a:01:3a:a2:3f:0a:fe:fc:6a" value="0101080a013aa23f0afefc6a">
      <field name="" show="No-Operation (NOP)" size="1" pos="54" value="01">
        <field name="tcp.options.type" showname="Type: 1" size="1" pos="54" show="1" value="01">
          <field name="tcp.options.type.copy" showname="0... .... = Copy on fragmentation: No" size="1" pos="54" show="0" value="0" unmaskedvalue="01"/>
          <field name="tcp.options.type.class" showname=".00. .... = Class: Control (0)" size="1" pos="54" show="0" value="0" unmaskedvalue="01"/>
          <field name="tcp.options.type.number" showname="...0 0001 = Number: No-Operation (NOP) (1)" size="1" pos="54" show="1" value="1" unmaskedvalue="01"/>
        </field>
      </field>
      <field name="" show="No-Operation (NOP)" size="1" pos="55" value="01">
        <field name="tcp.options.type" showname="Type: 1" size="1" pos="55" show="1" value="01">
          <field name="tcp.options.type.copy" showname="0... .... = Copy on fragmentation: No" size="1" pos="55" show="0" value="0" unmaskedvalue="01"/>
          <field name="tcp.options.type.class" showname=".00. .... = Class: Control (0)" size="1" pos="55" show="0" value="0" unmaskedvalue="01"/>
          <field name="tcp.options.type.number" showname="...0 0001 = Number: No-Operation (NOP) (1)" size="1" pos="55" show="1" value="1" unmaskedvalue="01"/>
        </field>
      </field>
      <field name="" show="Timestamps: TSval 20619839, TSecr 184482922" size="10" pos="56" value="080a013aa23f0afefc6a">
        <field name="tcp.option_kind" showname="Kind: Time Stamp Option (8)" size="1" pos="56" show="8" value="08"/>
        <field name="tcp.option_len" showname="Length: 10" size="1" pos="57" show="10" value="0a"/>
        <field name="tcp.options.timestamp.tsval" showname="Timestamp value: 20619839" size="4" pos="58" show="20619839" value="013aa23f"/>
        <field name="tcp.options.timestamp.tsecr" showname="Timestamp echo reply: 184482922" size="4" pos="62" show="184482922" value="0afefc6a"/>
      </field>
    </field>
    <field name="tcp.analysis" showname="SEQ/ACK analysis" size="0" pos="34" show="" value="">
      <field name="tcp.analysis.acks_frame" showname="This is an ACK to the segment in frame: 776" size="0" pos="34" show="776"/>
      <field name="tcp.analysis.ack_rtt" showname="The RTT to ACK the segment was: 0.194987572 seconds" size="0" pos="34" show="0.194987572"/>
      <field name="tcp.analysis.initial_rtt" showname="iRTT: 0.190337740 seconds" size="0" pos="34" show="0.190337740"/>
      <field name="tcp.analysis.bytes_in_flight" showname="Bytes in flight: 422" size="0" pos="34" show="422"/>
    </field>
  </proto>
</packet>
<packet>
  <proto name="tcp" showname="Transmission Control Protocol, Src Port: 55394 (55394), Dst Port: 80 (80), Seq: 653, Ack: 1819, Len: 0" size="32" pos="34">
    <field name="tcp.srcport" showname="Source Port: 55394" size="2" pos="34" show="55394" value="d862"/>
    <field name="tcp.dstport" showname="Destination Port: 80" size="2" pos="36" show="80" value="0050"/>
    <field name="tcp.port" showname="Source or Destination Port: 55394" hide="yes" size="2" pos="34" show="55394" value="d862"/>
    <field name="tcp.port" showname="Source or Destination Port: 80" hide="yes" size="2" pos="36" show="80" value="0050"/>
    <field name="tcp.stream" showname="Stream index: 11" size="0" pos="34" show="11"/>
    <field name="tcp.len" showname="TCP Segment Len: 0" size="1" pos="46" show="0" value="80"/>
    <field name="tcp.seq" showname="Sequence number: 653    (relative sequence number)" size="4" pos="38" show="653" value="ffe57fba"/>
    <field name="tcp.ack" showname="Acknowledgment number: 1819    (relative ack number)" size="4" pos="42" show="1819" value="285008b7"/>
    <field name="tcp.hdr_len" showname="Header Length: 32 bytes" size="1" pos="46" show="32" value="80"/>
    <field name="tcp.flags" showname="Flags: 0x010 (ACK)" size="2" pos="46" show="0x00000010" value="10" unmaskedvalue="8010">
      <field name="tcp.flags.res" showname="000. .... .... = Reserved: Not set" size="1" pos="46" show="0" value="0" unmaskedvalue="80"/>
      <field name="tcp.flags.ns" showname="...0 .... .... = Nonce: Not set" size="1" pos="46" show="0" value="0" unmaskedvalue="80"/>
      <field name="tcp.flags.cwr" showname=".... 0... .... = Congestion Window Reduced (CWR): Not set" size="1" pos="47" show="0" value="0" unmaskedvalue="10"/>
      <field name="tcp.flags.ecn" showname=".... .0.. .... = ECN-Echo: Not set" size="1" pos="47" show="0" value="0" unmaskedvalue="10"/>
      <field name="tcp.flags.urg" showname=".... ..0. .... = Urgent: Not set" size="1" pos="47" show="0" value="0" unmaskedvalue="10"/>
      <field name="tcp.flags.ack" showname=".... ...1 .... = Acknowledgment: Set" size="1" pos="47" show="1" value="1" unmaskedvalue="10"/>
      <field name="tcp.flags.push" showname=".... .... 0... = Push: Not set" size="1" pos="47" show="0" value="0" unmaskedvalue="10"/>
      <field name="tcp.flags.reset" showname=".... .... .0.. = Reset: Not set" size="1" pos="47" show="0" value="0" unmaskedvalue="10"/>
      <field name="tcp.flags.syn" showname=".... .... ..0. = Syn: Not set" size="1" pos="47" show="0" value="0" unmaskedvalue="10"/>
      <field name="tcp.flags.fin" showname=".... .... ...0 = Fin: Not set" size="1" pos="47" show="0" value="0" unmaskedvalue="10"/>
      <field name="tcp.flags.str" showname="TCP Flags: *******A****" size="2" pos="46" show="*******A****" value="8010"/>
    </field>
    <field name="tcp.window_size_value" showname="Window size value: 268" size="2" pos="48" show="268" value="010c"/>
    <field name="tcp.window_size" showname="Calculated window size: 34304" size="2" pos="48" show="34304" value="010c"/>
    <field name="tcp.window_size_scalefactor" showname="Window size scaling factor: 128" size="2" pos="48" show="128" value="010c"/>
    <field name="tcp.checksum" showname="Checksum: 0x2b16 [validation disabled]" size="2" pos="50" show="0x00002b16" value="2b16">
      <field name="tcp.checksum_good" showname="Good Checksum: False" size="2" pos="50" show="0" value="2b16"/>
      <field name="tcp.checksum_bad" showname="Bad Checksum: False" size="2" pos="50" show="0" value="2b16"/>
    </field>
    <field name="tcp.urgent_pointer" showname="Urgent pointer: 0" size="2" pos="52" show="0" value="0000"/>
    <field name="tcp.options" showname="Options: (12 bytes), No-Operation (NOP), No-Operation (NOP), Timestamps" size="12" pos="54" show="01:01:08:0a:0a:fe:fd:2d:01:3a:a2:3f" value="0101080a0afefd2d013aa23f">
      <field name="" show="No-Operation (NOP)" size="1" pos="54" value="01">
        <field name="tcp.options.type" showname="Type: 1" size="1" pos="54" show="1" value="01">
          <field name="tcp.options.type.copy" showname="0... .... = Copy on fragmentation: No" size="1" pos="54" show="0" value="0" unmaskedvalue="01"/>
          <field name="tcp.options.type.class" showname=".00. .... = Class: Control (0)" size="1" pos="54" show="0" value="0" unmaskedvalue="01"/>
          <field name="tcp.options.type.number" showname="...0 0001 = Number: No-Operation (NOP) (1)" size="1" pos="54" show="1" value="1" unmaskedvalue="01"/>
        </field>
      </field>
      <field name="" show="No-Operation (NOP)" size="1" pos="55" value="01">
        <field name="tcp.options.type" showname="Type: 1" size="1" pos="55" show="1" value="01">
          <field name="tcp.options.type.copy" showname="0... .... = Copy on fragmentation: No" size="1" pos="55" show="0" value="0" unmaskedvalue="01"/>
          <field name="tcp.options.type.class" showname=".00. .... = Class: Control (0)" size="1" pos="55" show="0" value="0" unmaskedvalue="01"/>
          <field name="tcp.options.type.number" showname="...0 0001 = Number: No-Operation (NOP) (1)" size="1" pos="55" show="1" value="1" unmaskedvalue="01"/>
        </field>
      </field>
      <field name="" show="Timestamps: TSval 184483117, TSecr 20619839" size="10" pos="56" value="080a0afefd2d013aa23f">
        <field name="tcp.option_kind" showname="Kind: Time Stamp Option (8)" size="1" pos="56" show="8" value="08"/>
        <field name="tcp.option_len" showname="Length: 10" size="1" pos="57" show="10" value="0a"/>
        <field name="tcp.options.timestamp.tsval" showname="Timestamp value: 184483117" size="4" pos="58" show="184483117" value="0afefd2d"/>
        <field name="tcp.options.timestamp.tsecr" showname="Timestamp echo reply: 20619839" size="4" pos="62" show="20619839" value="013aa23f"/>
      </field>
    </field>
    <field name="tcp.analysis" showname="SEQ/ACK analysis" size="0" pos="34" show="" value="">
      <field name="tcp.analysis.acks_frame" showname="This is an ACK to the segment in frame: 777" size="0" pos="34" show="777"/>
      <field name="tcp.analysis.ack_rtt" showname="The RTT to ACK the segment was: 0.000110353 seconds" size="0" pos="34" show="0.000110353"/>
      <field name="tcp.analysis.initial_rtt" showname="iRTT: 0.190337740 seconds" size="0" pos="34" show="0.190337740"/>
    </field>
  </proto>
</packet>
<packet>
  <proto name="tcp" showname="Transmission Control Protocol, Src Port: 55398 (55398), Dst Port: 80 (80), Seq: 0, Len: 0" size="40" pos="34">
    <field name="tcp.srcport" showname="Source Port: 55398" size="2" pos="34" show="55398" value="d866"/>
    <field name="tcp.dstport" showname="Destination Port: 80" size="2" pos="36" show="80" value="0050"/>
    <field name="tcp.port" showname="Source or Destination Port: 55398" hide="yes" size="2" pos="34" show="55398" value="d866"/>
    <field name="tcp.port" showname="Source or Destination Port: 80" hide="yes" size="2" pos="36" show="80" value="0050"/>
    <field name="tcp.stream" showname="Stream index: 13" size="0" pos="34" show="13"/>
    <field name="tcp.len" showname="TCP Segment Len: 0" size="1" pos="46" show="0" value="a0"/>
    <field name="tcp.seq" showname="Sequence number: 0    (relative sequence number)" size="4" pos="38" show="0" value="33cc4926"/>
    <field name="tcp.ack" showname="Acknowledgment number: 0" size="4" pos="42" show="0" value="00000000"/>
    <field name="tcp.hdr_len" showname="Header Length: 40 bytes" size="1" pos="46" show="40" value="a0"/>
    <field name="tcp.flags" showname="Flags: 0x002 (SYN)" size="2" pos="46" show="0x00000002" value="2" unmaskedvalue="a002">
      <field name="tcp.flags.res" showname="000. .... .... = Reserved: Not set" size="1" pos="46" show="0" value="0" unmaskedvalue="a0"/>
      <field name="tcp.flags.ns" showname="...0 .... .... = Nonce: Not set" size="1" pos="46" show="0" value="0" unmaskedvalue="a0"/>
      <field name="tcp.flags.cwr" showname=".... 0... .... = Congestion Window Reduced (CWR): Not set" size="1" pos="47" show="0" value="0" unmaskedvalue="02"/>
      <field name="tcp.flags.ecn" showname=".... .0.. .... = ECN-Echo: Not set" size="1" pos="47" show="0" value="0" unmaskedvalue="02"/>
      <field name="tcp.flags.urg" showname=".... ..0. .... = Urgent: Not set" size="1" pos="47" show="0" value="0" unmaskedvalue="02"/>
      <field name="tcp.flags.ack" showname=".... ...0 .... = Acknowledgment: Not set" size="1" pos="47" show="0" value="0" unmaskedvalue="02"/>
      <field name="tcp.flags.push" showname=".... .... 0... = Push: Not set" size="1" pos="47" show="0" value="0" unmaskedvalue="02"/>
      <field name="tcp.flags.reset" showname=".... .... .0.. = Reset: Not set" size="1" pos="47" show="0" value="0" unmaskedvalue="02"/>
      <field name="tcp.flags.syn" showname=".... .... ..1. = Syn: Set" size="1" pos="47" show="1" value="1" unmaskedvalue="02">
        <field name="_ws.expert" showname="Expert Info (Chat/Sequence): Connection establish request (SYN): server port 80" size="0" pos="47">
          <field name="tcp.connection.syn" showname="Connection establish request (SYN): server port 80" size="0" pos="0" show="" value=""/>
          <field name="_ws.expert.message" showname="Message: Connection establish request (SYN): server port 80" hide="yes" size="0" pos="0" show="Connection establish request (SYN): server port 80"/>
          <field name="_ws.expert.severity" showname="Severity level: Chat" size="0" pos="0" show="0x00200000"/>
          <field name="_ws.expert.group" showname="Group: Sequence" size="0" pos="0" show="0x02000000"/>
        </field>
      </field>
      <field name="tcp.flags.fin" showname=".... .... ...0 = Fin: Not set" size="1" pos="47" show="0" value="0" unmaskedvalue="02"/>
      <field name="tcp.flags.str" showname="TCP Flags: **********S*" size="2" pos="46" show="**********S*" value="a002"/>
    </field>
    <field name="tcp.window_size_value" showname="Window size value: 29200" size="2" pos="48" show="29200" value="7210"/>
    <field name="tcp.window_size" showname="Calculated window size: 29200" size="2" pos="48" show="29200" value="7210"/>
    <field name="tcp.checksum" showname="Checksum: 0x5655 [validation disabled]" size="2" pos="50" show="0x00005655" value="5655">
      <field name="tcp.checksum_good" showname="Good Checksum: False" size="2" pos="50" show="0" value="5655"/>
      <field name="tcp.checksum_bad" showname="Bad Checksum: False" size="2" pos="50" show="0" value="5655"/>
    </field>
    <field name="tcp.urgent_pointer" showname="Urgent pointer: 0" size="2" pos="52" show="0" value="0000"/>
    <field name="tcp.options" showname="Options: (20 bytes), Maximum segment size, SACK permitted, Timestamps, No-Operation (NOP), Window scale" size="20" pos="54" show="02:04:05:b4:04:02:08:0a:0a:ff:09:57:00:00:00:00:01:03:03:07" value="020405b40402080a0aff09570000000001030307">
      <field name="tcp.options.mss" showname="Maximum segment size: 1460 bytes" size="4" pos="54" show="" value="">
        <field name="tcp.option_kind" showname="Kind: Maximum Segment Size (2)" size="1" pos="54" show="2" value="02"/>
        <field name="tcp.option_len" showname="Length: 4" size="1" pos="55" show="4" value="04"/>
        <field name="tcp.options.mss_val" showname="MSS Value: 1460" size="2" pos="56" show="1460" value="05b4"/>
      </field>
      <field name="tcp.options.sack_perm" showname="TCP SACK Permitted Option: True" size="2" pos="58" show="1" value="0402">
        <field name="tcp.option_kind" showname="Kind: SACK Permitted (4)" size="1" pos="58" show="4" value="04"/>
        <field name="tcp.option_len" showname="Length: 2" size="1" pos="59" show="2" value="02"/>
      </field>
      <field name="" show="Timestamps: TSval 184486231, TSecr 0" size="10" pos="60" value="080a0aff095700000000">
        <field name="tcp.option_kind" showname="Kind: Time Stamp Option (8)" size="1" pos="60" show="8" value="08"/>
        <field name="tcp.option_len" showname="Length: 10" size="1" pos="61" show="10" value="0a"/>
        <field name="tcp.options.timestamp.tsval" showname="Timestamp value: 184486231" size="4" pos="62" show="184486231" value="0aff0957"/>
        <field name="tcp.options.timestamp.tsecr" showname="Timestamp echo reply: 0" size="4" pos="66" show="0" value="00000000"/>
      </field>
      <field name="" show="No-Operation (NOP)" size="1" pos="70" value="01">
        <field name="tcp.options.type" showname="Type: 1" size="1" pos="70" show="1" value="01">
          <field name="tcp.options.type.copy" showname="0... .... = Copy on fragmentation: No" size="1" pos="70" show="0" value="0" unmaskedvalue="01"/>
          <field name="tcp.options.type.class" showname=".00. .... = Class: Control (0)" size="1" pos="70" show="0" value="0" unmaskedvalue="01"/>
          <field name="tcp.options.type.number" showname="...0 0001 = Number: No-Operation (NOP) (1)" size="1" pos="70" show="1" value="1" unmaskedvalue="01"/>
        </field>
      </field>
      <field name="" show="Window scale: 7 (multiply by 128)" size="3" pos="71" value="030307">
        <field name="tcp.option_kind" showname="Kind: Window Scale (3)" size="1" pos="71" show="3" value="03"/>
        <field name="tcp.option_len" showname="Length: 3" size="1" pos="72" show="3" value="03"/>
        <field name="tcp.options.wscale.shift" showname="Shift count: 7" size="1" pos="73" show="7" value="07"/>
        <field name="tcp.options.wscale.multiplier" showname="Multiplier: 128" size="1" pos="73" show="128" value="07"/>
      </field>
    </field>
  </proto>
</packet>
<packet>
  <proto name="tcp" showname="Transmission Control Protocol, Src Port: 80 (80), Dst Port: 55398 (55398), Seq: 0, Ack: 1, Len: 0" size="40" pos="34">
    <field name="tcp.srcport" showname="Source Port: 80" size="2" pos="34" show="80" value="0050"/>
    <field name="tcp.dstport" showname="Destination Port: 55398" size="2" pos="36" show="55398" value="d866"/>
    <field name="tcp.port" showname="Source or Destination Port: 80" hide="yes" size="2" pos="34" show="80" value="0050"/>
    <field name="tcp.port" showname="Source or Destination Port: 55398" hide="yes" size="2" pos="36" show="55398" value="d866"/>
    <field name="tcp.stream" showname="Stream index: 13" size="0" pos="34" show="13"/>
    <field name="tcp.len" showname="TCP Segment Len: 0" size="1" pos="46" show="0" value="a0"/>
    <field name="tcp.seq" showname="Sequence number: 0    (relative sequence number)" size="4" pos="38" show="0" value="2b3a385c"/>
    <field name="tcp.ack" showname="Acknowledgment number: 1    (relative ack number)" size="4" pos="42" show="1" value="33cc4927"/>
    <field name="tcp.hdr_len" showname="Header Length: 40 bytes" size="1" pos="46" show="40" value="a0"/>
    <field name="tcp.flags" showname="Flags: 0x012 (SYN, ACK)" size="2" pos="46" show="0x00000012" value="12" unmaskedvalue="a012">
      <field name="tcp.flags.res" showname="000. .... .... = Reserved: Not set" size="1" pos="46" show="0" value="0" unmaskedvalue="a0"/>
      <field name="tcp.flags.ns" showname="...0 .... .... = Nonce: Not set" size="1" pos="46" show="0" value="0" unmaskedvalue="a0"/>
      <field name="tcp.flags.cwr" showname=".... 0... .... = Congestion Window Reduced (CWR): Not set" size="1" pos="47" show="0" value="0" unmaskedvalue="12"/>
      <field name="tcp.flags.ecn" showname=".... .0.. .... = ECN-Echo: Not set" size="1" pos="47" show="0" value="0" unmaskedvalue="12"/>
      <field name="tcp.flags.urg" showname=".... ..0. .... = Urgent: Not set" size="1" pos="47" show="0" value="0" unmaskedvalue="12"/>
      <field name="tcp.flags.ack" showname=".... ...1 .... = Acknowledgment: Set" size="1" pos="47" show="1" value="1" unmaskedvalue="12"/>
      <field name="tcp.flags.push" showname=".... .... 0... = Push: Not set" size="1" pos="47" show="0" value="0" unmaskedvalue="12"/>
      <field name="tcp.flags.reset" showname=".... .... .0.. = Reset: Not set" size="1" pos="47" show="0" value="0" unmaskedvalue="12"/>
      <field name="tcp.flags.syn" showname=".... .... ..1. = Syn: Set" size="1" pos="47" show="1" value="1" unmaskedvalue="12">
        <field name="_ws.expert" showname="Expert Info (Chat/Sequence): Connection establish acknowledge (SYN+ACK): server port 80" size="0" pos="47">
          <field name="tcp.connection.sack" showname="Connection establish acknowledge (SYN+ACK): server port 80" size="0" pos="0" show="" value=""/>
          <field name="_ws.expert.message" showname="Message: Connection establish acknowledge (SYN+ACK): server port 80" hide="yes" size="0" pos="0" show="Connection establish acknowledge (SYN+ACK): server port 80"/>
          <field name="_ws.expert.severity" showname="Severity level: Chat" size="0" pos="0" show="0x00200000"/>
          <field name="_ws.expert.group" showname="Group: Sequence" size="0" pos="0" show="0x02000000"/>
        </field>
      </field>
      <field name="tcp.flags.fin" showname=".... .... ...0 = Fin: Not set" size="1" pos="47" show="0" value="0" unmaskedvalue="12"/>
      <field name="tcp.flags.str" showname="TCP Flags: *******A**S*" size="2" pos="46" show="*******A**S*" value="a012"/>
    </field>
    <field name="tcp.window_size_value" showname="Window size value: 3392" size="2" pos="48" show="3392" value="0d40"/>
    <field name="tcp.window_size" showname="Calculated window size: 3392" size="2" pos="48" show="3392" value="0d40"/>
    <field name="tcp.checksum" showname="Checksum: 0xb321 [validation disabled]" size="2" pos="50" show="0x0000b321" value="b321">
      <field name="tcp.checksum_good" showname="Good Checksum: False" size="2" pos="50" show="0" value="b321"/>
      <field name="tcp.checksum_bad" showname="Bad Checksum: False" size="2" pos="50" show="0" value="b321"/>
    </field>
    <field name="tcp.urgent_pointer" showname="Urgent pointer: 0" size="2" pos="52" show="0" value="0000"/>
    <field name="tcp.options" showname="Options: (20 bytes), Maximum segment size, SACK permitted, Timestamps, No-Operation (NOP), Window scale" size="20" pos="54" show="02:04:03:5c:04:02:08:0a:01:3a:a5:7b:0a:ff:09:57:01:03:03:06" value="0204035c0402080a013aa57b0aff095701030306">
      <field name="tcp.options.mss" showname="Maximum segment size: 860 bytes" size="4" pos="54" show="" value="">
        <field name="tcp.option_kind" showname="Kind: Maximum Segment Size (2)" size="1" pos="54" show="2" value="02"/>
        <field name="tcp.option_len" showname="Length: 4" size="1" pos="55" show="4" value="04"/>
        <field name="tcp.options.mss_val" showname="MSS Value: 860" size="2" pos="56" show="860" value="035c"/>
      </field>
      <field name="tcp.options.sack_perm" showname="TCP SACK Permitted Option: True" size="2" pos="58" show="1" value="0402">
        <field name="tcp.option_kind" showname="Kind: SACK Permitted (4)" size="1" pos="58" show="4" value="04"/>
        <field name="tcp.option_len" showname="Length: 2" size="1" pos="59" show="2" value="02"/>
      </field>
      <field name="" show="Timestamps: TSval 20620667, TSecr 184486231" size="10" pos="60" value="080a013aa57b0aff0957">
        <field name="tcp.option_kind" showname="Kind: Time Stamp Option (8)" size="1" pos="60" show="8" value="08"/>
        <field name="tcp.option_len" showname="Length: 10" size="1" pos="61" show="10" value="0a"/>
        <field name="tcp.options.timestamp.tsval" showname="Timestamp value: 20620667" size="4" pos="62" show="20620667" value="013aa57b"/>
        <field name="tcp.options.timestamp.tsecr" showname="Timestamp echo reply: 184486231" size="4" pos="66" show="184486231" value="0aff0957"/>
      </field>
      <field name="" show="No-Operation (NOP)" size="1" pos="70" value="01">
        <field name="tcp.options.type" showname="Type: 1" size="1" pos="70" show="1" value="01">
          <field name="tcp.options.type.copy" showname="0... .... = Copy on fragmentation: No" size="1" pos="70" show="0" value="0" unmaskedvalue="01"/>
          <field name="tcp.options.type.class" showname=".00. .... = Class: Control (0)" size="1" pos="70" show="0" value="0" unmaskedvalue="01"/>
          <field name="tcp.options.type.number" showname="...0 0001 = Number: No-Operation (NOP) (1)" size="1" pos="70" show="1" value="1" unmaskedvalue="01"/>
        </field>
      </field>
      <field name="" show="Window scale: 6 (multiply by 64)" size="3" pos="71" value="030306">
        <field name="tcp.option_kind" showname="Kind: Window Scale (3)" size="1" pos="71" show="3" value="03"/>
        <field name="tcp.option_len" showname="Length: 3" size="1" pos="72" show="3" value="03"/>
        <field name="tcp.options.wscale.shift" showname="Shift count: 6" size="1" pos="73" show="6" value="06"/>
        <field name="tcp.options.wscale.multiplier" showname="Multiplier: 64" size="1" pos="73" show="64" value="06"/>
      </field>
    </field>
    <field name="tcp.analysis" showname="SEQ/ACK analysis" size="0" pos="34" show="" value="">
      <field name="tcp.analysis.acks_frame" showname="This is an ACK to the segment in frame: 1520" size="0" pos="34" show="1520"/>
      <field name="tcp.analysis.ack_rtt" showname="The RTT to ACK the segment was: 0.222141652 seconds" size="0" pos="34" show="0.222141652"/>
      <field name="tcp.analysis.initial_rtt" showname="iRTT: 0.222209048 seconds" size="0" pos="34" show="0.222209048"/>
    </field>
  </proto>
</packet>
<packet>
  <proto name="tcp" showname="Transmission Control Protocol, Src Port: 55398 (55398), Dst Port: 80 (80), Seq: 1, Ack: 1, Len: 0" size="32" pos="34">
    <field name="tcp.srcport" showname="Source Port: 55398" size="2" pos="34" show="55398" value="d866"/>
    <field name="tcp.dstport" showname="Destination Port: 80" size="2" pos="36" show="80" value="0050"/>
    <field name="tcp.port" showname="Source or Destination Port: 55398" hide="yes" size="2" pos="34" show="55398" value="d866"/>
    <field name="tcp.port" showname="Source or Destination Port: 80" hide="yes" size="2" pos="36" show="80" value="0050"/>
    <field name="tcp.stream" showname="Stream index: 13" size="0" pos="34" show="13"/>
    <field name="tcp.len" showname="TCP Segment Len: 0" size="1" pos="46" show="0" value="80"/>
    <field name="tcp.seq" showname="Sequence number: 1    (relative sequence number)" size="4" pos="38" show="1" value="33cc4927"/>
    <field name="tcp.ack" showname="Acknowledgment number: 1    (relative ack number)" size="4" pos="42" show="1" value="2b3a385d"/>
    <field name="tcp.hdr_len" showname="Header Length: 32 bytes" size="1" pos="46" show="32" value="80"/>
    <field name="tcp.flags" showname="Flags: 0x010 (ACK)" size="2" pos="46" show="0x00000010" value="10" unmaskedvalue="8010">
      <field name="tcp.flags.res" showname="000. .... .... = Reserved: Not set" size="1" pos="46" show="0" value="0" unmaskedvalue="80"/>
      <field name="tcp.flags.ns" showname="...0 .... .... = Nonce: Not set" size="1" pos="46" show="0" value="0" unmaskedvalue="80"/>
      <field name="tcp.flags.cwr" showname=".... 0... .... = Congestion Window Reduced (CWR): Not set" size="1" pos="47" show="0" value="0" unmaskedvalue="10"/>
      <field name="tcp.flags.ecn" showname=".... .0.. .... = ECN-Echo: Not set" size="1" pos="47" show="0" value="0" unmaskedvalue="10"/>
      <field name="tcp.flags.urg" showname=".... ..0. .... = Urgent: Not set" size="1" pos="47" show="0" value="0" unmaskedvalue="10"/>
      <field name="tcp.flags.ack" showname=".... ...1 .... = Acknowledgment: Set" size="1" pos="47" show="1" value="1" unmaskedvalue="10"/>
      <field name="tcp.flags.push" showname=".... .... 0... = Push: Not set" size="1" pos="47" show="0" value="0" unmaskedvalue="10"/>
      <field name="tcp.flags.reset" showname=".... .... .0.. = Reset: Not set" size="1" pos="47" show="0" value="0" unmaskedvalue="10"/>
      <field name="tcp.flags.syn" showname=".... .... ..0. = Syn: Not set" size="1" pos="47" show="0" value="0" unmaskedvalue="10"/>
      <field name="tcp.flags.fin" showname=".... .... ...0 = Fin: Not set" size="1" pos="47" show="0" value="0" unmaskedvalue="10"/>
      <field name="tcp.flags.str" showname="TCP Flags: *******A****" size="2" pos="46" show="*******A****" value="8010"/>
    </field>
    <field name="tcp.window_size_value" showname="Window size value: 229" size="2" pos="48" show="229" value="00e5"/>
    <field name="tcp.window_size" showname="Calculated window size: 29312" size="2" pos="48" show="29312" value="00e5"/>
    <field name="tcp.window_size_scalefactor" showname="Window size scaling factor: 128" size="2" pos="48" show="128" value="00e5"/>
    <field name="tcp.checksum" showname="Checksum: 0xeb11 [validation disabled]" size="2" pos="50" show="0x0000eb11" value="eb11">
      <field name="tcp.checksum_good" showname="Good Checksum: False" size="2" pos="50" show="0" value="eb11"/>
      <field name="tcp.checksum_bad" showname="Bad Checksum: False" size="2" pos="50" show="0" value="eb11"/>
    </field>
    <field name="tcp.urgent_pointer" showname="Urgent pointer: 0" size="2" pos="52" show="0" value="0000"/>
    <field name="tcp.options" showname="Options: (12 bytes), No-Operation (NOP), No-Operation (NOP), Timestamps" size="12" pos="54" show="01:01:08:0a:0a:ff:0a:35:01:3a:a5:7b" value="0101080a0aff0a35013aa57b">
      <field name="" show="No-Operation (NOP)" size="1" pos="54" value="01">
        <field name="tcp.options.type" showname="Type: 1" size="1" pos="54" show="1" value="01">
          <field name="tcp.options.type.copy" showname="0... .... = Copy on fragmentation: No" size="1" pos="54" show="0" value="0" unmaskedvalue="01"/>
          <field name="tcp.options.type.class" showname=".00. .... = Class: Control (0)" size="1" pos="54" show="0" value="0" unmaskedvalue="01"/>
          <field name="tcp.options.type.number" showname="...0 0001 = Number: No-Operation (NOP) (1)" size="1" pos="54" show="1" value="1" unmaskedvalue="01"/>
        </field>
      </field>
      <field name="" show="No-Operation (NOP)" size="1" pos="55" value="01">
        <field name="tcp.options.type" showname="Type: 1" size="1" pos="55" show="1" value="01">
          <field name="tcp.options.type.copy" showname="0... .... = Copy on fragmentation: No" size="1" pos="55" show="0" value="0" unmaskedvalue="01"/>
          <field name="tcp.options.type.class" showname=".00. .... = Class: Control (0)" size="1" pos="55" show="0" value="0" unmaskedvalue="01"/>
          <field name="tcp.options.type.number" showname="...0 0001 = Number: No-Operation (NOP) (1)" size="1" pos="55" show="1" value="1" unmaskedvalue="01"/>
        </field>
      </field>
      <field name="" show="Timestamps: TSval 184486453, TSecr 20620667" size="10" pos="56" value="080a0aff0a35013aa57b">
        <field name="tcp.option_kind" showname="Kind: Time Stamp Option (8)" size="1" pos="56" show="8" value="08"/>
        <field name="tcp.option_len" showname="Length: 10" size="1" pos="57" show="10" value="0a"/>
        <field name="tcp.options.timestamp.tsval" showname="Timestamp value: 184486453" size="4" pos="58" show="184486453" value="0aff0a35"/>
        <field name="tcp.options.timestamp.tsecr" showname="Timestamp echo reply: 20620667" size="4" pos="62" show="20620667" value="013aa57b"/>
      </field>
    </field>
    <field name="tcp.analysis" showname="SEQ/ACK analysis" size="0" pos="34" show="" value="">
      <field name="tcp.analysis.acks_frame" showname="This is an ACK to the segment in frame: 1579" size="0" pos="34" show="1579"/>
      <field name="tcp.analysis.ack_rtt" showname="The RTT to ACK the segment was: 0.000067396 seconds" size="0" pos="34" show="0.000067396"/>
      <field name="tcp.analysis.initial_rtt" showname="iRTT: 0.222209048 seconds" size="0" pos="34" show="0.222209048"/>
    </field>
  </proto>
</packet>
<packet>
  <proto name="tcp" showname="Transmission Control Protocol, Src Port: 55394 (55394), Dst Port: 80 (80), Seq: 653, Ack: 1819, Len: 0" size="32" pos="34">
    <field name="tcp.srcport" showname="Source Port: 55394" size="2" pos="34" show="55394" value="d862"/>
    <field name="tcp.dstport" showname="Destination Port: 80" size="2" pos="36" show="80" value="0050"/>
    <field name="tcp.port" showname="Source or Destination Port: 55394" hide="yes" size="2" pos="34" show="55394" value="d862"/>
    <field name="tcp.port" showname="Source or Destination Port: 80" hide="yes" size="2" pos="36" show="80" value="0050"/>
    <field name="tcp.stream" showname="Stream index: 11" size="0" pos="34" show="11"/>
    <field name="tcp.len" showname="TCP Segment Len: 0" size="1" pos="46" show="0" value="80"/>
    <field name="tcp.seq" showname="Sequence number: 653    (relative sequence number)" size="4" pos="38" show="653" value="ffe57fba"/>
    <field name="tcp.ack" showname="Acknowledgment number: 1819    (relative ack number)" size="4" pos="42" show="1819" value="285008b7"/>
    <field name="tcp.hdr_len" showname="Header Length: 32 bytes" size="1" pos="46" show="32" value="80"/>
    <field name="tcp.flags" showname="Flags: 0x011 (FIN, ACK)" size="2" pos="46" show="0x00000011" value="11" unmaskedvalue="8011">
      <field name="tcp.flags.res" showname="000. .... .... = Reserved: Not set" size="1" pos="46" show="0" value="0" unmaskedvalue="80"/>
      <field name="tcp.flags.ns" showname="...0 .... .... = Nonce: Not set" size="1" pos="46" show="0" value="0" unmaskedvalue="80"/>
      <field name="tcp.flags.cwr" showname=".... 0... .... = Congestion Window Reduced (CWR): Not set" size="1" pos="47" show="0" value="0" unmaskedvalue="11"/>
      <field name="tcp.flags.ecn" showname=".... .0.. .... = ECN-Echo: Not set" size="1" pos="47" show="0" value="0" unmaskedvalue="11"/>
      <field name="tcp.flags.urg" showname=".... ..0. .... = Urgent: Not set" size="1" pos="47" show="0" value="0" unmaskedvalue="11"/>
      <field name="tcp.flags.ack" showname=".... ...1 .... = Acknowledgment: Set" size="1" pos="47" show="1" value="1" unmaskedvalue="11"/>
      <field name="tcp.flags.push" showname=".... .... 0... = Push: Not set" size="1" pos="47" show="0" value="0" unmaskedvalue="11"/>
      <field name="tcp.flags.reset" showname=".... .... .0.. = Reset: Not set" size="1" pos="47" show="0" value="0" unmaskedvalue="11"/>
      <field name="tcp.flags.syn" showname=".... .... ..0. = Syn: Not set" size="1" pos="47" show="0" value="0" unmaskedvalue="11"/>
      <field name="tcp.flags.fin" showname=".... .... ...1 = Fin: Set" size="1" pos="47" show="1" value="1" unmaskedvalue="11">
        <field name="_ws.expert" showname="Expert Info (Chat/Sequence): Connection finish (FIN)" size="0" pos="47">
          <field name="tcp.connection.fin" showname="Connection finish (FIN)" size="0" pos="0" show="" value=""/>
          <field name="_ws.expert.message" showname="Message: Connection finish (FIN)" hide="yes" size="0" pos="0" show="Connection finish (FIN)"/>
          <field name="_ws.expert.severity" showname="Severity level: Chat" size="0" pos="0" show="0x00200000"/>
          <field name="_ws.expert.group" showname="Group: Sequence" size="0" pos="0" show="0x02000000"/>
        </field>
      </field>
      <field name="tcp.flags.str" showname="TCP Flags: *******A***F" size="2" pos="46" show="*******A***F" value="8011"/>
    </field>
    <field name="tcp.window_size_value" showname="Window size value: 268" size="2" pos="48" show="268" value="010c"/>
    <field name="tcp.window_size" showname="Calculated window size: 34304" size="2" pos="48" show="34304" value="010c"/>
    <field name="tcp.window_size_scalefactor" showname="Window size scaling factor: 128" size="2" pos="48" show="128" value="010c"/>
    <field name="tcp.checksum" showname="Checksum: 0x15ca [validation disabled]" size="2" pos="50" show="0x000015ca" value="15ca">
      <field name="tcp.checksum_good" showname="Good Checksum: False" size="2" pos="50" show="0" value="15ca"/>
      <field name="tcp.checksum_bad" showname="Bad Checksum: False" size="2" pos="50" show="0" value="15ca"/>
    </field>
    <field name="tcp.urgent_pointer" showname="Urgent pointer: 0" size="2" pos="52" show="0" value="0000"/>
    <field name="tcp.options" showname="Options: (12 bytes), No-Operation (NOP), No-Operation (NOP), Timestamps" size="12" pos="54" show="01:01:08:0a:0a:ff:12:78:01:3a:a2:3f" value="0101080a0aff1278013aa23f">
      <field name="" show="No-Operation (NOP)" size="1" pos="54" value="01">
        <field name="tcp.options.type" showname="Type: 1" size="1" pos="54" show="1" value="01">
          <field name="tcp.options.type.copy" showname="0... .... = Copy on fragmentation: No" size="1" pos="54" show="0" value="0" unmaskedvalue="01"/>
          <field name="tcp.options.type.class" showname=".00. .... = Class: Control (0)" size="1" pos="54" show="0" value="0" unmaskedvalue="01"/>
          <field name="tcp.options.type.number" showname="...0 0001 = Number: No-Operation (NOP) (1)" size="1" pos="54" show="1" value="1" unmaskedvalue="01"/>
        </field>
      </field>
      <field name="" show="No-Operation (NOP)" size="1" pos="55" value="01">
        <field name="tcp.options.type" showname="Type: 1" size="1" pos="55" show="1" value="01">
          <field name="tcp.options.type.copy" showname="0... .... = Copy on fragmentation: No" size="1" pos="55" show="0" value="0" unmaskedvalue="01"/>
          <field name="tcp.options.type.class" showname=".00. .... = Class: Control (0)" size="1" pos="55" show="0" value="0" unmaskedvalue="01"/>
          <field name="tcp.options.type.number" showname="...0 0001 = Number: No-Operation (NOP) (1)" size="1" pos="55" show="1" value="1" unmaskedvalue="01"/>
        </field>
      </field>
      <field name="" show="Timestamps: TSval 184488568, TSecr 20619839" size="10" pos="56" value="080a0aff1278013aa23f">
        <field name="tcp.option_kind" showname="Kind: Time Stamp Option (8)" size="1" pos="56" show="8" value="08"/>
        <field name="tcp.option_len" showname="Length: 10" size="1" pos="57" show="10" value="0a"/>
        <field name="tcp.options.timestamp.tsval" showname="Timestamp value: 184488568" size="4" pos="58" show="184488568" value="0aff1278"/>
        <field name="tcp.options.timestamp.tsecr" showname="Timestamp echo reply: 20619839" size="4" pos="62" show="20619839" value="013aa23f"/>
      </field>
    </field>
  </proto>
</packet>
<packet>
  <proto name="tcp" showname="Transmission Control Protocol, Src Port: 80 (80), Dst Port: 55394 (55394), Seq: 1819, Ack: 653, Len: 0" size="32" pos="34">
    <field name="tcp.srcport" showname="Source Port: 80" size="2" pos="34" show="80" value="0050"/>
    <field name="tcp.dstport" showname="Destination Port: 55394" size="2" pos="36" show="55394" value="d862"/>
    <field name="tcp.port" showname="Source or Destination Port: 80" hide="yes" size="2" pos="34" show="80" value="0050"/>
    <field name="tcp.port" showname="Source or Destination Port: 55394" hide="yes" size="2" pos="36" show="55394" value="d862"/>
    <field name="tcp.stream" showname="Stream index: 11" size="0" pos="34" show="11"/>
    <field name="tcp.len" showname="TCP Segment Len: 0" size="1" pos="46" show="0" value="80"/>
    <field name="tcp.seq" showname="Sequence number: 1819    (relative sequence number)" size="4" pos="38" show="1819" value="285008b7"/>
    <field name="tcp.ack" showname="Acknowledgment number: 653    (relative ack number)" size="4" pos="42" show="653" value="ffe57fba"/>
    <field name="tcp.hdr_len" showname="Header Length: 32 bytes" size="1" pos="46" show="32" value="80"/>
    <field name="tcp.flags" showname="Flags: 0x011 (FIN, ACK)" size="2" pos="46" show="0x00000011" value="11" unmaskedvalue="8011">
      <field name="tcp.flags.res" showname="000. .... .... = Reserved: Not set" size="1" pos="46" show="0" value="0" unmaskedvalue="80"/>
      <field name="tcp.flags.ns" showname="...0 .... .... = Nonce: Not set" size="1" pos="46" show="0" value="0" unmaskedvalue="80"/>
      <field name="tcp.flags.cwr" showname=".... 0... .... = Congestion Window Reduced (CWR): Not set" size="1" pos="47" show="0" value="0" unmaskedvalue="11"/>
      <field name="tcp.flags.ecn" showname=".... .0.. .... = ECN-Echo: Not set" size="1" pos="47" show="0" value="0" unmaskedvalue="11"/>
      <field name="tcp.flags.urg" showname=".... ..0. .... = Urgent: Not set" size="1" pos="47" show="0" value="0" unmaskedvalue="11"/>
      <field name="tcp.flags.ack" showname=".... ...1 .... = Acknowledgment: Set" size="1" pos="47" show="1" value="1" unmaskedvalue="11"/>
      <field name="tcp.flags.push" showname=".... .... 0... = Push: Not set" size="1" pos="47" show="0" value="0" unmaskedvalue="11"/>
      <field name="tcp.flags.reset" showname=".... .... .0.. = Reset: Not set" size="1" pos="47" show="0" value="0" unmaskedvalue="11"/>
      <field name="tcp.flags.syn" showname=".... .... ..0. = Syn: Not set" size="1" pos="47" show="0" value="0" unmaskedvalue="11"/>
      <field name="tcp.flags.fin" showname=".... .... ...1 = Fin: Set" size="1" pos="47" show="1" value="1" unmaskedvalue="11">
        <field name="_ws.expert" showname="Expert Info (Chat/Sequence): Connection finish (FIN)" size="0" pos="47">
          <field name="tcp.connection.fin" showname="Connection finish (FIN)" size="0" pos="0" show="" value=""/>
          <field name="_ws.expert.message" showname="Message: Connection finish (FIN)" hide="yes" size="0" pos="0" show="Connection finish (FIN)"/>
          <field name="_ws.expert.severity" showname="Severity level: Chat" size="0" pos="0" show="0x00200000"/>
          <field name="_ws.expert.group" showname="Group: Sequence" size="0" pos="0" show="0x02000000"/>
        </field>
      </field>
      <field name="tcp.flags.str" showname="TCP Flags: *******A***F" size="2" pos="46" show="*******A***F" value="8011"/>
    </field>
    <field name="tcp.window_size_value" showname="Window size value: 87" size="2" pos="48" show="87" value="0057"/>
    <field name="tcp.window_size" showname="Calculated window size: 5568" size="2" pos="48" show="5568" value="0057"/>
    <field name="tcp.window_size_scalefactor" showname="Window size scaling factor: 64" size="2" pos="48" show="64" value="0057"/>
    <field name="tcp.checksum" showname="Checksum: 0x26e7 [validation disabled]" size="2" pos="50" show="0x000026e7" value="26e7">
      <field name="tcp.checksum_good" showname="Good Checksum: False" size="2" pos="50" show="0" value="26e7"/>
      <field name="tcp.checksum_bad" showname="Bad Checksum: False" size="2" pos="50" show="0" value="26e7"/>
    </field>
    <field name="tcp.urgent_pointer" showname="Urgent pointer: 0" size="2" pos="52" show="0" value="0000"/>
    <field name="tcp.options" showname="Options: (12 bytes), No-Operation (NOP), No-Operation (NOP), Timestamps" size="12" pos="54" show="01:01:08:0a:01:3a:a7:22:0a:fe:fd:2d" value="0101080a013aa7220afefd2d">
      <field name="" show="No-Operation (NOP)" size="1" pos="54" value="01">
        <field name="tcp.options.type" showname="Type: 1" size="1" pos="54" show="1" value="01">
          <field name="tcp.options.type.copy" showname="0... .... = Copy on fragmentation: No" size="1" pos="54" show="0" value="0" unmaskedvalue="01"/>
          <field name="tcp.options.type.class" showname=".00. .... = Class: Control (0)" size="1" pos="54" show="0" value="0" unmaskedvalue="01"/>
          <field name="tcp.options.type.number" showname="...0 0001 = Number: No-Operation (NOP) (1)" size="1" pos="54" show="1" value="1" unmaskedvalue="01"/>
        </field>
      </field>
      <field name="" show="No-Operation (NOP)" size="1" pos="55" value="01">
        <field name="tcp.options.type" showname="Type: 1" size="1" pos="55" show="1" value="01">
          <field name="tcp.options.type.copy" showname="0... .... = Copy on fragmentation: No" size="1" pos="55" show="0" value="0" unmaskedvalue="01"/>
          <field name="tcp.options.type.class" showname=".00. .... = Class: Control (0)" size="1" pos="55" show="0" value="0" unmaskedvalue="01"/>
          <field name="tcp.options.type.number" showname="...0 0001 = Number: No-Operation (NOP) (1)" size="1" pos="55" show="1" value="1" unmaskedvalue="01"/>
        </field>
      </field>
      <field name="" show="Timestamps: TSval 20621090, TSecr 184483117" size="10" pos="56" value="080a013aa7220afefd2d">
        <field name="tcp.option_kind" showname="Kind: Time Stamp Option (8)" size="1" pos="56" show="8" value="08"/>
        <field name="tcp.option_len" showname="Length: 10" size="1" pos="57" show="10" value="0a"/>
        <field name="tcp.options.timestamp.tsval" showname="Timestamp value: 20621090" size="4" pos="58" show="20621090" value="013aa722"/>
        <field name="tcp.options.timestamp.tsecr" showname="Timestamp echo reply: 184483117" size="4" pos="62" show="184483117" value="0afefd2d"/>
      </field>
    </field>
  </proto>
</packet>
<packet>
  <proto name="tcp" showname="Transmission Control Protocol, Src Port: 55394 (55394), Dst Port: 80 (80), Seq: 654, Ack: 1820, Len: 0" size="32" pos="34">
    <field name="tcp.srcport" showname="Source Port: 55394" size="2" pos="34" show="55394" value="d862"/>
    <field name="tcp.dstport" showname="Destination Port: 80" size="2" pos="36" show="80" value="0050"/>
    <field name="tcp.port" showname="Source or Destination Port: 55394" hide="yes" size="2" pos="34" show="55394" value="d862"/>
    <field name="tcp.port" showname="Source or Destination Port: 80" hide="yes" size="2" pos="36" show="80" value="0050"/>
    <field name="tcp.stream" showname="Stream index: 11" size="0" pos="34" show="11"/>
    <field name="tcp.len" showname="TCP Segment Len: 0" size="1" pos="46" show="0" value="80"/>
    <field name="tcp.seq" showname="Sequence number: 654    (relative sequence number)" size="4" pos="38" show="654" value="ffe57fbb"/>
    <field name="tcp.ack" showname="Acknowledgment number: 1820    (relative ack number)" size="4" pos="42" show="1820" value="285008b8"/>
    <field name="tcp.hdr_len" showname="Header Length: 32 bytes" size="1" pos="46" show="32" value="80"/>
    <field name="tcp.flags" showname="Flags: 0x010 (ACK)" size="2" pos="46" show="0x00000010" value="10" unmaskedvalue="8010">
      <field name="tcp.flags.res" showname="000. .... .... = Reserved: Not set" size="1" pos="46" show="0" value="0" unmaskedvalue="80"/>
      <field name="tcp.flags.ns" showname="...0 .... .... = Nonce: Not set" size="1" pos="46" show="0" value="0" unmaskedvalue="80"/>
      <field name="tcp.flags.cwr" showname=".... 0... .... = Congestion Window Reduced (CWR): Not set" size="1" pos="47" show="0" value="0" unmaskedvalue="10"/>
      <field name="tcp.flags.ecn" showname=".... .0.. .... = ECN-Echo: Not set" size="1" pos="47" show="0" value="0" unmaskedvalue="10"/>
      <field name="tcp.flags.urg" showname=".... ..0. .... = Urgent: Not set" size="1" pos="47" show="0" value="0" unmaskedvalue="10"/>
      <field name="tcp.flags.ack" showname=".... ...1 .... = Acknowledgment: Set" size="1" pos="47" show="1" value="1" unmaskedvalue="10"/>
      <field name="tcp.flags.push" showname=".... .... 0... = Push: Not set" size="1" pos="47" show="0" value="0" unmaskedvalue="10"/>
      <field name="tcp.flags.reset" showname=".... .... .0.. = Reset: Not set" size="1" pos="47" show="0" value="0" unmaskedvalue="10"/>
      <field name="tcp.flags.syn" showname=".... .... ..0. = Syn: Not set" size="1" pos="47" show="0" value="0" unmaskedvalue="10"/>
      <field name="tcp.flags.fin" showname=".... .... ...0 = Fin: Not set" size="1" pos="47" show="0" value="0" unmaskedvalue="10"/>
      <field name="tcp.flags.str" showname="TCP Flags: *******A****" size="2" pos="46" show="*******A****" value="8010"/>
    </field>
    <field name="tcp.window_size_value" showname="Window size value: 268" size="2" pos="48" show="268" value="010c"/>
    <field name="tcp.window_size" showname="Calculated window size: 34304" size="2" pos="48" show="34304" value="010c"/>
    <field name="tcp.window_size_scalefactor" showname="Window size scaling factor: 128" size="2" pos="48" show="128" value="010c"/>
    <field name="tcp.checksum" showname="Checksum: 0x10df [validation disabled]" size="2" pos="50" show="0x000010df" value="10df">
      <field name="tcp.checksum_good" showname="Good Checksum: False" size="2" pos="50" show="0" value="10df"/>
      <field name="tcp.checksum_bad" showname="Bad Checksum: False" size="2" pos="50" show="0" value="10df"/>
    </field>
    <field name="tcp.urgent_pointer" showname="Urgent pointer: 0" size="2" pos="52" show="0" value="0000"/>
    <field name="tcp.options" showname="Options: (12 bytes), No-Operation (NOP), No-Operation (NOP), Timestamps" size="12" pos="54" show="01:01:08:0a:0a:ff:12:7f:01:3a:a7:22" value="0101080a0aff127f013aa722">
      <field name="" show="No-Operation (NOP)" size="1" pos="54" value="01">
        <field name="tcp.options.type" showname="Type: 1" size="1" pos="54" show="1" value="01">
          <field name="tcp.options.type.copy" showname="0... .... = Copy on fragmentation: No" size="1" pos="54" show="0" value="0" unmaskedvalue="01"/>
          <field name="tcp.options.type.class" showname=".00. .... = Class: Control (0)" size="1" pos="54" show="0" value="0" unmaskedvalue="01"/>
          <field name="tcp.options.type.number" showname="...0 0001 = Number: No-Operation (NOP) (1)" size="1" pos="54" show="1" value="1" unmaskedvalue="01"/>
        </field>
      </field>
      <field name="" show="No-Operation (NOP)" size="1" pos="55" value="01">
        <field name="tcp.options.type" showname="Type: 1" size="1" pos="55" show="1" value="01">
          <field name="tcp.options.type.copy" showname="0... .... = Copy on fragmentation: No" size="1" pos="55" show="0" value="0" unmaskedvalue="01"/>
          <field name="tcp.options.type.class" showname=".00. .... = Class: Control (0)" size="1" pos="55" show="0" value="0" unmaskedvalue="01"/>
          <field name="tcp.options.type.number" showname="...0 0001 = Number: No-Operation (NOP) (1)" size="1" pos="55" show="1" value="1" unmaskedvalue="01"/>
        </field>
      </field>
      <field name="" show="Timestamps: TSval 184488575, TSecr 20621090" size="10" pos="56" value="080a0aff127f013aa722">
        <field name="tcp.option_kind" showname="Kind: Time Stamp Option (8)" size="1" pos="56" show="8" value="08"/>
        <field name="tcp.option_len" showname="Length: 10" size="1" pos="57" show="10" value="0a"/>
        <field name="tcp.options.timestamp.tsval" showname="Timestamp value: 184488575" size="4" pos="58" show="184488575" value="0aff127f"/>
        <field name="tcp.options.timestamp.tsecr" showname="Timestamp echo reply: 20621090" size="4" pos="62" show="20621090" value="013aa722"/>
      </field>
    </field>
    <field name="tcp.analysis" showname="SEQ/ACK analysis" size="0" pos="34" show="" value="">
      <field name="tcp.analysis.acks_frame" showname="This is an ACK to the segment in frame: 1862" size="0" pos="34" show="1862"/>
      <field name="tcp.analysis.ack_rtt" showname="The RTT to ACK the segment was: 0.000046598 seconds" size="0" pos="34" show="0.000046598"/>
      <field name="tcp.analysis.initial_rtt" showname="iRTT: 0.190337740 seconds" size="0" pos="34" show="0.190337740"/>
    </field>
  </proto>
</packet>
<packet>
  <proto name="tcp" showname="Transmission Control Protocol, Src Port: 80 (80), Dst Port: 55394 (55394), Seq: 1820, Ack: 654, Len: 0" size="32" pos="34">
    <field name="tcp.srcport" showname="Source Port: 80" size="2" pos="34" show="80" value="0050"/>
    <field name="tcp.dstport" showname="Destination Port: 55394" size="2" pos="36" show="55394" value="d862"/>
    <field name="tcp.port" showname="Source or Destination Port: 80" hide="yes" size="2" pos="34" show="80" value="0050"/>
    <field name="tcp.port" showname="Source or Destination Port: 55394" hide="yes" size="2" pos="36" show="55394" value="d862"/>
    <field name="tcp.stream" showname="Stream index: 11" size="0" pos="34" show="11"/>
    <field name="tcp.len" showname="TCP Segment Len: 0" size="1" pos="46" show="0" value="80"/>
    <field name="tcp.seq" showname="Sequence number: 1820    (relative sequence number)" size="4" pos="38" show="1820" value="285008b8"/>
    <field name="tcp.ack" showname="Acknowledgment number: 654    (relative ack number)" size="4" pos="42" show="654" value="ffe57fbb"/>
    <field name="tcp.hdr_len" showname="Header Length: 32 bytes" size="1" pos="46" show="32" value="80"/>
    <field name="tcp.flags" showname="Flags: 0x010 (ACK)" size="2" pos="46" show="0x00000010" value="10" unmaskedvalue="8010">
      <field name="tcp.flags.res" showname="000. .... .... = Reserved: Not set" size="1" pos="46" show="0" value="0" unmaskedvalue="80"/>
      <field name="tcp.flags.ns" showname="...0 .... .... = Nonce: Not set" size="1" pos="46" show="0" value="0" unmaskedvalue="80"/>
      <field name="tcp.flags.cwr" showname=".... 0... .... = Congestion Window Reduced (CWR): Not set" size="1" pos="47" show="0" value="0" unmaskedvalue="10"/>
      <field name="tcp.flags.ecn" showname=".... .0.. .... = ECN-Echo: Not set" size="1" pos="47" show="0" value="0" unmaskedvalue="10"/>
      <field name="tcp.flags.urg" showname=".... ..0. .... = Urgent: Not set" size="1" pos="47" show="0" value="0" unmaskedvalue="10"/>
      <field name="tcp.flags.ack" showname=".... ...1 .... = Acknowledgment: Set" size="1" pos="47" show="1" value="1" unmaskedvalue="10"/>
      <field name="tcp.flags.push" showname=".... .... 0... = Push: Not set" size="1" pos="47" show="0" value="0" unmaskedvalue="10"/>
      <field name="tcp.flags.reset" showname=".... .... .0.. = Reset: Not set" size="1" pos="47" show="0" value="0" unmaskedvalue="10"/>
      <field name="tcp.flags.syn" showname=".... .... ..0. = Syn: Not set" size="1" pos="47" show="0" value="0" unmaskedvalue="10"/>
      <field name="tcp.flags.fin" showname=".... .... ...0 = Fin: Not set" size="1" pos="47" show="0" value="0" unmaskedvalue="10"/>
      <field name="tcp.flags.str" showname="TCP Flags: *******A****" size="2" pos="46" show="*******A****" value="8010"/>
    </field>
    <field name="tcp.window_size_value" showname="Window size value: 87" size="2" pos="48" show="87" value="0057"/>
    <field name="tcp.window_size" showname="Calculated window size: 5568" size="2" pos="48" show="5568" value="0057"/>
    <field name="tcp.window_size_scalefactor" showname="Window size scaling factor: 64" size="2" pos="48" show="64" value="0057"/>
    <field name="tcp.checksum" showname="Checksum: 0x10fa [validation disabled]" size="2" pos="50" show="0x000010fa" value="10fa">
      <field name="tcp.checksum_good" showname="Good Checksum: False" size="2" pos="50" show="0" value="10fa"/>
      <field name="tcp.checksum_bad" showname="Bad Checksum: False" size="2" pos="50" show="0" value="10fa"/>
    </field>
    <field name="tcp.urgent_pointer" showname="Urgent pointer: 0" size="2" pos="52" show="0" value="0000"/>
    <field name="tcp.options" showname="Options: (12 bytes), No-Operation (NOP), No-Operation (NOP), Timestamps" size="12" pos="54" show="01:01:08:0a:01:3a:a7:c3:0a:ff:12:78" value="0101080a013aa7c30aff1278">
      <field name="" show="No-Operation (NOP)" size="1" pos="54" value="01">
        <field name="tcp.options.type" showname="Type: 1" size="1" pos="54" show="1" value="01">
          <field name="tcp.options.type.copy" showname="0... .... = Copy on fragmentation: No" size="1" pos="54" show="0" value="0" unmaskedvalue="01"/>
          <field name="tcp.options.type.class" showname=".00. .... = Class: Control (0)" size="1" pos="54" show="0" value="0" unmaskedvalue="01"/>
          <field name="tcp.options.type.number" showname="...0 0001 = Number: No-Operation (NOP) (1)" size="1" pos="54" show="1" value="1" unmaskedvalue="01"/>
        </field>
      </field>
      <field name="" show="No-Operation (NOP)" size="1" pos="55" value="01">
        <field name="tcp.options.type" showname="Type: 1" size="1" pos="55" show="1" value="01">
          <field name="tcp.options.type.copy" showname="0... .... = Copy on fragmentation: No" size="1" pos="55" show="0" value="0" unmaskedvalue="01"/>
          <field name="tcp.options.type.class" showname=".00. .... = Class: Control (0)" size="1" pos="55" show="0" value="0" unmaskedvalue="01"/>
          <field name="tcp.options.type.number" showname="...0 0001 = Number: No-Operation (NOP) (1)" size="1" pos="55" show="1" value="1" unmaskedvalue="01"/>
        </field>
      </field>
      <field name="" show="Timestamps: TSval 20621251, TSecr 184488568" size="10" pos="56" value="080a013aa7c30aff1278">
        <field name="tcp.option_kind" showname="Kind: Time Stamp Option (8)" size="1" pos="56" show="8" value="08"/>
        <field name="tcp.option_len" showname="Length: 10" size="1" pos="57" show="10" value="0a"/>
        <field name="tcp.options.timestamp.tsval" showname="Timestamp value: 20621251" size="4" pos="58" show="20621251" value="013aa7c3"/>
        <field name="tcp.options.timestamp.tsecr" showname="Timestamp echo reply: 184488568" size="4" pos="62" show="184488568" value="0aff1278"/>
      </field>
    </field>
    <field name="tcp.analysis" showname="SEQ/ACK analysis" size="0" pos="34" show="" value="">
      <field name="tcp.analysis.acks_frame" showname="This is an ACK to the segment in frame: 1861" size="0" pos="34" show="1861"/>
      <field name="tcp.analysis.ack_rtt" showname="The RTT to ACK the segment was: 0.458208324 seconds" size="0" pos="34" show="0.458208324"/>
      <field name="tcp.analysis.initial_rtt" showname="iRTT: 0.190337740 seconds" size="0" pos="34" show="0.190337740"/>
    </field>
  </proto>
</packet>
<packet>
  <proto name="tcp" showname="Transmission Control Protocol, Src Port: 80 (80), Dst Port: 55394 (55394), Seq: 1819, Ack: 653, Len: 0" size="32" pos="34">
    <field name="tcp.srcport" showname="Source Port: 80" size="2" pos="34" show="80" value="0050"/>
    <field name="tcp.dstport" showname="Destination Port: 55394" size="2" pos="36" show="55394" value="d862"/>
    <field name="tcp.port" showname="Source or Destination Port: 80" hide="yes" size="2" pos="34" show="80" value="0050"/>
    <field name="tcp.port" showname="Source or Destination Port: 55394" hide="yes" size="2" pos="36" show="55394" value="d862"/>
    <field name="tcp.stream" showname="Stream index: 11" size="0" pos="34" show="11"/>
    <field name="tcp.len" showname="TCP Segment Len: 0" size="1" pos="46" show="0" value="80"/>
    <field name="tcp.seq" showname="Sequence number: 1819    (relative sequence number)" size="4" pos="38" show="1819" value="285008b7"/>
    <field name="tcp.ack" showname="Acknowledgment number: 653    (relative ack number)" size="4" pos="42" show="653" value="ffe57fba"/>
    <field name="tcp.hdr_len" showname="Header Length: 32 bytes" size="1" pos="46" show="32" value="80"/>
    <field name="tcp.flags" showname="Flags: 0x011 (FIN, ACK)" size="2" pos="46" show="0x00000011" value="11" unmaskedvalue="8011">
      <field name="tcp.flags.res" showname="000. .... .... = Reserved: Not set" size="1" pos="46" show="0" value="0" unmaskedvalue="80"/>
      <field name="tcp.flags.ns" showname="...0 .... .... = Nonce: Not set" size="1" pos="46" show="0" value="0" unmaskedvalue="80"/>
      <field name="tcp.flags.cwr" showname=".... 0... .... = Congestion Window Reduced (CWR): Not set" size="1" pos="47" show="0" value="0" unmaskedvalue="11"/>
      <field name="tcp.flags.ecn" showname=".... .0.. .... = ECN-Echo: Not set" size="1" pos="47" show="0" value="0" unmaskedvalue="11"/>
      <field name="tcp.flags.urg" showname=".... ..0. .... = Urgent: Not set" size="1" pos="47" show="0" value="0" unmaskedvalue="11"/>
      <field name="tcp.flags.ack" showname=".... ...1 .... = Acknowledgment: Set" size="1" pos="47" show="1" value="1" unmaskedvalue="11"/>
      <field name="tcp.flags.push" showname=".... .... 0... = Push: Not set" size="1" pos="47" show="0" value="0" unmaskedvalue="11"/>
      <field name="tcp.flags.reset" showname=".... .... .0.. = Reset: Not set" size="1" pos="47" show="0" value="0" unmaskedvalue="11"/>
      <field name="tcp.flags.syn" showname=".... .... ..0. = Syn: Not set" size="1" pos="47" show="0" value="0" unmaskedvalue="11"/>
      <field name="tcp.flags.fin" showname=".... .... ...1 = Fin: Set" size="1" pos="47" show="1" value="1" unmaskedvalue="11">
        <field name="_ws.expert" showname="Expert Info (Chat/Sequence): Connection finish (FIN)" size="0" pos="47">
          <field name="tcp.connection.fin" showname="Connection finish (FIN)" size="0" pos="0" show="" value=""/>
          <field name="_ws.expert.message" showname="Message: Connection finish (FIN)" hide="yes" size="0" pos="0" show="Connection finish (FIN)"/>
          <field name="_ws.expert.severity" showname="Severity level: Chat" size="0" pos="0" show="0x00200000"/>
          <field name="_ws.expert.group" showname="Group: Sequence" size="0" pos="0" show="0x02000000"/>
        </field>
      </field>
      <field name="tcp.flags.str" showname="TCP Flags: *******A***F" size="2" pos="46" show="*******A***F" value="8011"/>
    </field>
    <field name="tcp.window_size_value" showname="Window size value: 87" size="2" pos="48" show="87" value="0057"/>
    <field name="tcp.window_size" showname="Calculated window size: 5568" size="2" pos="48" show="5568" value="0057"/>
    <field name="tcp.window_size_scalefactor" showname="Window size scaling factor: 64" size="2" pos="48" show="64" value="0057"/>
    <field name="tcp.checksum" showname="Checksum: 0x265e [validation disabled]" size="2" pos="50" show="0x0000265e" value="265e">
      <field name="tcp.checksum_good" showname="Good Checksum: False" size="2" pos="50" show="0" value="265e"/>
      <field name="tcp.checksum_bad" showname="Bad Checksum: False" size="2" pos="50" show="0" value="265e"/>
    </field>
    <field name="tcp.urgent_pointer" showname="Urgent pointer: 0" size="2" pos="52" show="0" value="0000"/>
    <field name="tcp.options" showname="Options: (12 bytes), No-Operation (NOP), No-Operation (NOP), Timestamps" size="12" pos="54" show="01:01:08:0a:01:3a:a7:ab:0a:fe:fd:2d" value="0101080a013aa7ab0afefd2d">
      <field name="" show="No-Operation (NOP)" size="1" pos="54" value="01">
        <field name="tcp.options.type" showname="Type: 1" size="1" pos="54" show="1" value="01">
          <field name="tcp.options.type.copy" showname="0... .... = Copy on fragmentation: No" size="1" pos="54" show="0" value="0" unmaskedvalue="01"/>
          <field name="tcp.options.type.class" showname=".00. .... = Class: Control (0)" size="1" pos="54" show="0" value="0" unmaskedvalue="01"/>
          <field name="tcp.options.type.number" showname="...0 0001 = Number: No-Operation (NOP) (1)" size="1" pos="54" show="1" value="1" unmaskedvalue="01"/>
        </field>
      </field>
      <field name="" show="No-Operation (NOP)" size="1" pos="55" value="01">
        <field name="tcp.options.type" showname="Type: 1" size="1" pos="55" show="1" value="01">
          <field name="tcp.options.type.copy" showname="0... .... = Copy on fragmentation: No" size="1" pos="55" show="0" value="0" unmaskedvalue="01"/>
          <field name="tcp.options.type.class" showname=".00. .... = Class: Control (0)" size="1" pos="55" show="0" value="0" unmaskedvalue="01"/>
          <field name="tcp.options.type.number" showname="...0 0001 = Number: No-Operation (NOP) (1)" size="1" pos="55" show="1" value="1" unmaskedvalue="01"/>
        </field>
      </field>
      <field name="" show="Timestamps: TSval 20621227, TSecr 184483117" size="10" pos="56" value="080a013aa7ab0afefd2d">
        <field name="tcp.option_kind" showname="Kind: Time Stamp Option (8)" size="1" pos="56" show="8" value="08"/>
        <field name="tcp.option_len" showname="Length: 10" size="1" pos="57" show="10" value="0a"/>
        <field name="tcp.options.timestamp.tsval" showname="Timestamp value: 20621227" size="4" pos="58" show="20621227" value="013aa7ab"/>
        <field name="tcp.options.timestamp.tsecr" showname="Timestamp echo reply: 184483117" size="4" pos="62" show="184483117" value="0afefd2d"/>
      </field>
    </field>
    <field name="tcp.analysis" showname="SEQ/ACK analysis" size="0" pos="34" show="" value="">
      <field name="tcp.analysis.initial_rtt" showname="iRTT: 0.190337740 seconds" size="0" pos="34" show="0.190337740"/>
      <field name="tcp.analysis.flags" showname="TCP Analysis Flags" size="0" pos="34" show="" value="">
        <field name="_ws.expert" showname="Expert Info (Note/Sequence): This frame is a (suspected) spurious retransmission" size="0" pos="34">
          <field name="tcp.analysis.spurious_retransmission" showname="This frame is a (suspected) spurious retransmission" size="0" pos="0" show="" value=""/>
          <field name="_ws.expert.message" showname="Message: This frame is a (suspected) spurious retransmission" hide="yes" size="0" pos="0" show="This frame is a (suspected) spurious retransmission"/>
          <field name="_ws.expert.severity" showname="Severity level: Note" size="0" pos="0" show="0x00400000"/>
          <field name="_ws.expert.group" showname="Group: Sequence" size="0" pos="0" show="0x02000000"/>
        </field>
        <field name="_ws.expert" showname="Expert Info (Note/Sequence): This frame is a (suspected) retransmission" size="0" pos="34">
          <field name="tcp.analysis.retransmission" showname="This frame is a (suspected) retransmission" size="0" pos="0" show="" value=""/>
          <field name="_ws.expert.message" showname="Message: This frame is a (suspected) retransmission" hide="yes" size="0" pos="0" show="This frame is a (suspected) retransmission"/>
          <field name="_ws.expert.severity" showname="Severity level: Note" size="0" pos="0" show="0x00400000"/>
          <field name="_ws.expert.group" showname="Group: Sequence" size="0" pos="0" show="0x02000000"/>
        </field>
      </field>
    </field>
  </proto>
</packet>
<packet>
  <proto name="tcp" showname="Transmission Control Protocol, Src Port: 55394 (55394), Dst Port: 80 (80), Seq: 654, Ack: 1820, Len: 0" size="32" pos="34">
    <field name="tcp.srcport" showname="Source Port: 55394" size="2" pos="34" show="55394" value="d862"/>
    <field name="tcp.dstport" showname="Destination Port: 80" size="2" pos="36" show="80" value="0050"/>
    <field name="tcp.port" showname="Source or Destination Port: 55394" hide="yes" size="2" pos="34" show="55394" value="d862"/>
    <field name="tcp.port" showname="Source or Destination Port: 80" hide="yes" size="2" pos="36" show="80" value="0050"/>
    <field name="tcp.stream" showname="Stream index: 11" size="0" pos="34" show="11"/>
    <field name="tcp.len" showname="TCP Segment Len: 0" size="1" pos="46" show="0" value="80"/>
    <field name="tcp.seq" showname="Sequence number: 654    (relative sequence number)" size="4" pos="38" show="654" value="ffe57fbb"/>
    <field name="tcp.ack" showname="Acknowledgment number: 1820    (relative ack number)" size="4" pos="42" show="1820" value="285008b8"/>
    <field name="tcp.hdr_len" showname="Header Length: 32 bytes" size="1" pos="46" show="32" value="80"/>
    <field name="tcp.flags" showname="Flags: 0x010 (ACK)" size="2" pos="46" show="0x00000010" value="10" unmaskedvalue="8010">
      <field name="tcp.flags.res" showname="000. .... .... = Reserved: Not set" size="1" pos="46" show="0" value="0" unmaskedvalue="80"/>
      <field name="tcp.flags.ns" showname="...0 .... .... = Nonce: Not set" size="1" pos="46" show="0" value="0" unmaskedvalue="80"/>
      <field name="tcp.flags.cwr" showname=".... 0... .... = Congestion Window Reduced (CWR): Not set" size="1" pos="47" show="0" value="0" unmaskedvalue="10"/>
      <field name="tcp.flags.ecn" showname=".... .0.. .... = ECN-Echo: Not set" size="1" pos="47" show="0" value="0" unmaskedvalue="10"/>
      <field name="tcp.flags.urg" showname=".... ..0. .... = Urgent: Not set" size="1" pos="47" show="0" value="0" unmaskedvalue="10"/>
      <field name="tcp.flags.ack" showname=".... ...1 .... = Acknowledgment: Set" size="1" pos="47" show="1" value="1" unmaskedvalue="10"/>
      <field name="tcp.flags.push" showname=".... .... 0... = Push: Not set" size="1" pos="47" show="0" value="0" unmaskedvalue="10"/>
      <field name="tcp.flags.reset" showname=".... .... .0.. = Reset: Not set" size="1" pos="47" show="0" value="0" unmaskedvalue="10"/>
      <field name="tcp.flags.syn" showname=".... .... ..0. = Syn: Not set" size="1" pos="47" show="0" value="0" unmaskedvalue="10"/>
      <field name="tcp.flags.fin" showname=".... .... ...0 = Fin: Not set" size="1" pos="47" show="0" value="0" unmaskedvalue="10"/>
      <field name="tcp.flags.str" showname="TCP Flags: *******A****" size="2" pos="46" show="*******A****" value="8010"/>
    </field>
    <field name="tcp.window_size_value" showname="Window size value: 268" size="2" pos="48" show="268" value="010c"/>
    <field name="tcp.window_size" showname="Calculated window size: 34304" size="2" pos="48" show="34304" value="010c"/>
    <field name="tcp.window_size_scalefactor" showname="Window size scaling factor: 128" size="2" pos="48" show="128" value="010c"/>
    <field name="tcp.checksum" showname="Checksum: 0x0e7b [validation disabled]" size="2" pos="50" show="0x00000e7b" value="0e7b">
      <field name="tcp.checksum_good" showname="Good Checksum: False" size="2" pos="50" show="0" value="0e7b"/>
      <field name="tcp.checksum_bad" showname="Bad Checksum: False" size="2" pos="50" show="0" value="0e7b"/>
    </field>
    <field name="tcp.urgent_pointer" showname="Urgent pointer: 0" size="2" pos="52" show="0" value="0000"/>
    <field name="tcp.options" showname="Options: (12 bytes), No-Operation (NOP), No-Operation (NOP), Timestamps" size="12" pos="54" show="01:01:08:0a:0a:ff:14:42:01:3a:a7:c3" value="0101080a0aff1442013aa7c3">
      <field name="" show="No-Operation (NOP)" size="1" pos="54" value="01">
        <field name="tcp.options.type" showname="Type: 1" size="1" pos="54" show="1" value="01">
          <field name="tcp.options.type.copy" showname="0... .... = Copy on fragmentation: No" size="1" pos="54" show="0" value="0" unmaskedvalue="01"/>
          <field name="tcp.options.type.class" showname=".00. .... = Class: Control (0)" size="1" pos="54" show="0" value="0" unmaskedvalue="01"/>
          <field name="tcp.options.type.number" showname="...0 0001 = Number: No-Operation (NOP) (1)" size="1" pos="54" show="1" value="1" unmaskedvalue="01"/>
        </field>
      </field>
      <field name="" show="No-Operation (NOP)" size="1" pos="55" value="01">
        <field name="tcp.options.type" showname="Type: 1" size="1" pos="55" show="1" value="01">
          <field name="tcp.options.type.copy" showname="0... .... = Copy on fragmentation: No" size="1" pos="55" show="0" value="0" unmaskedvalue="01"/>
          <field name="tcp.options.type.class" showname=".00. .... = Class: Control (0)" size="1" pos="55" show="0" value="0" unmaskedvalue="01"/>
          <field name="tcp.options.type.number" showname="...0 0001 = Number: No-Operation (NOP) (1)" size="1" pos="55" show="1" value="1" unmaskedvalue="01"/>
        </field>
      </field>
      <field name="" show="Timestamps: TSval 184489026, TSecr 20621251" size="10" pos="56" value="080a0aff1442013aa7c3">
        <field name="tcp.option_kind" showname="Kind: Time Stamp Option (8)" size="1" pos="56" show="8" value="08"/>
        <field name="tcp.option_len" showname="Length: 10" size="1" pos="57" show="10" value="0a"/>
        <field name="tcp.options.timestamp.tsval" showname="Timestamp value: 184489026" size="4" pos="58" show="184489026" value="0aff1442"/>
        <field name="tcp.options.timestamp.tsecr" showname="Timestamp echo reply: 20621251" size="4" pos="62" show="20621251" value="013aa7c3"/>
      </field>
    </field>
    <field name="tcp.analysis" showname="SEQ/ACK analysis" size="0" pos="34" show="" value="">
      <field name="tcp.analysis.acks_frame" showname="This is an ACK to the segment in frame: 2027" size="0" pos="34" show="2027"/>
      <field name="tcp.analysis.ack_rtt" showname="The RTT to ACK the segment was: 0.000052957 seconds" size="0" pos="34" show="0.000052957"/>
      <field name="tcp.analysis.initial_rtt" showname="iRTT: 0.190337740 seconds" size="0" pos="34" show="0.190337740"/>
      <field name="tcp.analysis.flags" showname="TCP Analysis Flags" size="0" pos="34" show="" value="">
        <field name="tcp.analysis.duplicate_ack" showname="This is a TCP duplicate ack" size="0" pos="34" show="" value=""/>
      </field>
      <field name="tcp.analysis.duplicate_ack_num" showname="Duplicate ACK #: 1" size="0" pos="34" show="1"/>
      <field name="tcp.analysis.duplicate_ack_frame" showname="Duplicate to the ACK in frame: 1863" size="0" pos="34" show="1863">
        <field name="_ws.expert" showname="Expert Info (Note/Sequence): Duplicate ACK (#1)" size="0" pos="34">
          <field name="tcp.analysis.duplicate_ack" showname="Duplicate ACK (#1)" size="0" pos="0" show="" value=""/>
          <field name="_ws.expert.message" showname="Message: Duplicate ACK (#1)" hide="yes" size="0" pos="0" show="Duplicate ACK (#1)"/>
          <field name="_ws.expert.severity" showname="Severity level: Note" size="0" pos="0" show="0x00400000"/>
          <field name="_ws.expert.group" showname="Group: Sequence" size="0" pos="0" show="0x02000000"/>
        </field>
      </field>
    </field>
  </proto>
</packet>
</pdml>
